	.section	__TEXT,__text,regular,pure_instructions
	.build_version macos, 11, 7, 1
	.p2align	2                               ; -- Begin function panic.panic_help
l_panic.panic_help:                     ; @panic.panic_help
Lfunc_begin0:
	.cfi_startproc
; %bb.0:
	sub	sp, sp, #48
	.cfi_def_cfa_offset 48
	stp	x29, x30, [sp, #32]             ; 16-byte Folded Spill
	.cfi_offset w30, -8
	.cfi_offset w29, -16
	mov	x2, x1
	mov	x1, x0
	add	x0, sp, #8
	bl	l_str.RocStr.init
	add	x0, sp, #8
	mov	w1, wzr
	bl	_roc_panic
Lfunc_end0:
	.cfi_endproc
                                        ; -- End function
	.p2align	2                               ; -- Begin function str.RocStr.init
l_str.RocStr.init:                      ; @str.RocStr.init
Lfunc_begin1:
	.cfi_startproc
; %bb.0:
	sub	sp, sp, #80
	.cfi_def_cfa_offset 80
	stp	x22, x21, [sp, #32]             ; 16-byte Folded Spill
	stp	x20, x19, [sp, #48]             ; 16-byte Folded Spill
	stp	x29, x30, [sp, #64]             ; 16-byte Folded Spill
	.cfi_offset w30, -8
	.cfi_offset w29, -16
	.cfi_offset w19, -24
	.cfi_offset w20, -32
	.cfi_offset w21, -40
	.cfi_offset w22, -48
	mov	x20, x2
	mov	x21, x1
	mov	x19, x0
	cmp	x2, #23
	b.ls	LBB1_2
; %bb.1:                                ; %str.RocStr.allocate.exit
	cmp	x20, #64
	mov	w8, #64
	csel	x22, x20, x8, hi
	mov	w1, #8
	add	x0, x22, #8
	bl	_roc_alloc
	mov	x8, #-9223372036854775808
	cmp	x22, #0
	add	x9, sp, #8
	str	x8, [x0], #8
	csel	x8, x9, x0, lt
	mov	x9, x20
	b	LBB1_3
LBB1_2:                                 ; %str.RocStr.allocate.exit.thread
	lsl	x8, x20, #56
	mov	x0, xzr
	mov	x9, xzr
	orr	x22, x8, #0x8000000000000000
	add	x8, sp, #8
LBB1_3:                                 ; %str.RocStr.asU8ptrMut.exit
	stp	x0, x9, [sp, #8]
	mov	x0, x8
	mov	x1, x21
	mov	x2, x20
	str	x22, [sp, #24]
	bl	_memcpy
	ldur	q0, [sp, #8]
	ldr	x8, [sp, #24]
	ldp	x29, x30, [sp, #64]             ; 16-byte Folded Reload
	str	q0, [x19]
	str	x8, [x19, #16]
	ldp	x20, x19, [sp, #48]             ; 16-byte Folded Reload
	ldp	x22, x21, [sp, #32]             ; 16-byte Folded Reload
	add	sp, sp, #80
	.cfi_def_cfa_offset 0
	.cfi_restore w30
	.cfi_restore w29
	.cfi_restore w19
	.cfi_restore w20
	.cfi_restore w21
	.cfi_restore w22
	ret
Lfunc_end1:
	.cfi_endproc
                                        ; -- End function
	.p2align	2                               ; -- Begin function sort.fluxsort
l_sort.fluxsort:                        ; @sort.fluxsort
Lfunc_begin2:
	.cfi_startproc
; %bb.0:
	stp	x28, x27, [sp, #-96]!           ; 16-byte Folded Spill
	.cfi_def_cfa_offset 96
	stp	x26, x25, [sp, #16]             ; 16-byte Folded Spill
	stp	x24, x23, [sp, #32]             ; 16-byte Folded Spill
	stp	x22, x21, [sp, #48]             ; 16-byte Folded Spill
	stp	x20, x19, [sp, #64]             ; 16-byte Folded Spill
	stp	x29, x30, [sp, #80]             ; 16-byte Folded Spill
	.cfi_offset w30, -8
	.cfi_offset w29, -16
	.cfi_offset w19, -24
	.cfi_offset w20, -32
	.cfi_offset w21, -40
	.cfi_offset w22, -48
	.cfi_offset w23, -56
	.cfi_offset w24, -64
	.cfi_offset w25, -72
	.cfi_offset w26, -80
	.cfi_offset w27, -88
	.cfi_offset w28, -96
	sub	sp, sp, #1, lsl #12             ; =4096
	.cfi_def_cfa_offset 4192
	sub	sp, sp, #880
	.cfi_def_cfa_offset 5072
	.cfi_remember_state
	mov	x28, x6
	mov	x26, x5
	mov	w19, w4
	mov	x24, x3
	mov	x27, x1
	ldr	x8, [sp, #5072]
	cmp	x1, #132
	str	x2, [sp, #328]                  ; 8-byte Folded Spill
	stp	x0, x5, [sp, #240]              ; 16-byte Folded Spill
	str	x8, [sp, #264]                  ; 8-byte Folded Spill
	str	x3, [sp, #360]                  ; 8-byte Folded Spill
	b.hs	LBB2_4
; %bb.1:
	cmp	x28, #96
	b.hi	LBB2_9
; %bb.2:
	mov	x1, x27
	tbz	w19, #0, LBB2_16
; %bb.3:
	ldr	x2, [sp, #328]                  ; 8-byte Folded Reload
	mov	x3, x24
	mov	x4, x28
	mov	w5, w7
	b	LBB2_46
LBB2_4:
	cmp	x28, #96
	mov	x8, x28
	str	x28, [sp, #352]                 ; 8-byte Folded Spill
	str	x27, [sp, #168]                 ; 8-byte Folded Spill
	str	w7, [sp, #164]                  ; 4-byte Folded Spill
	b.hi	LBB2_13
; %bb.5:
	mul	x0, x28, x27
	mov	w1, w7
	str	x0, [sp, #120]                  ; 8-byte Folded Spill
	bl	_roc_alloc
	str	x0, [sp, #152]                  ; 8-byte Folded Spill
	tbz	w19, #0, LBB2_17
; %bb.6:
	ldr	x9, [sp, #240]                  ; 8-byte Folded Reload
	cbz	x0, LBB2_45
; %bb.7:
	lsr	x8, x27, #1
	lsr	x21, x27, #2
	sub	x19, x27, x8
	mov	x13, x28
	lsr	x10, x19, #1
	mul	x11, x21, x28
	add	x12, x10, x8
	add	x20, x9, x11
	str	x10, [sp, #128]                 ; 8-byte Folded Spill
	mul	x10, x8, x28
	stp	x12, x11, [sp, #48]             ; 16-byte Folded Spill
	mul	x12, x12, x28
	add	x23, x9, x10
	stp	x10, x8, [sp, #72]              ; 16-byte Folded Spill
	sub	x8, x8, x21
	cmp	x21, x8
	str	x12, [sp, #88]                  ; 8-byte Folded Spill
	str	x8, [sp, #112]                  ; 8-byte Folded Spill
	b.hs	LBB2_51
; %bb.8:
	mov	x0, x24
	mov	w1, #1
	mov	x22, x20
	add	x20, x20, x28
	blr	x26
	mov	x0, x24
	mov	x1, x22
	mov	x2, x20
	ldr	x8, [sp, #328]                  ; 8-byte Folded Reload
	blr	x8
	and	w8, w0, #0xff
	ldr	x9, [sp, #240]                  ; 8-byte Folded Reload
	cmp	w8, #1
	cset	w8, eq
	str	x8, [sp, #224]                  ; 8-byte Folded Spill
	b	LBB2_52
LBB2_9:
	lsl	x0, x27, #3
	mov	w1, #8
	mov	w24, w7
	bl	_roc_alloc
	cbz	x0, LBB2_1256
; %bb.10:                               ; %.preheader13.i
	mov	x22, x0
	cbz	x27, LBB2_37
; %bb.11:                               ; %.preheader13.i
	cmp	x27, #1
	b.ne	LBB2_32
; %bb.12:
	mov	x8, xzr
	b	LBB2_35
LBB2_13:
	lsl	x0, x27, #3
	mov	w1, #8
	str	x0, [sp, #192]                  ; 8-byte Folded Spill
	bl	_roc_alloc
	str	x0, [sp, #208]                  ; 8-byte Folded Spill
	cbz	x0, LBB2_1256
; %bb.14:                               ; %.lr.ph.preheader
	cmp	x27, #2
	b.hs	LBB2_20
; %bb.15:
	mov	x8, xzr
	b	LBB2_23
LBB2_16:
	ldr	x2, [sp, #328]                  ; 8-byte Folded Reload
	mov	x3, x24
	mov	x4, x28
	mov	w5, w7
	b	LBB2_48
LBB2_17:
	ldr	x9, [sp, #240]                  ; 8-byte Folded Reload
	cbz	x0, LBB2_47
; %bb.18:
	lsr	x8, x27, #1
	lsr	x26, x27, #2
	sub	x10, x27, x8
	mov	x13, x28
	mul	x11, x26, x28
	str	x10, [sp, #128]                 ; 8-byte Folded Spill
	lsr	x10, x10, #1
	add	x12, x10, x8
	add	x1, x9, x11
	str	x10, [sp, #144]                 ; 8-byte Folded Spill
	mul	x10, x8, x28
	mul	x19, x12, x28
	stp	x12, x11, [sp, #64]             ; 16-byte Folded Spill
	stp	x10, x8, [sp, #80]              ; 16-byte Folded Spill
	sub	x8, x8, x26
	add	x10, x9, x10
	cmp	x26, x8
	stp	x10, x8, [sp, #96]              ; 16-byte Folded Spill
	b.hs	LBB2_54
; %bb.19:
	add	x20, x1, x28
	mov	x0, x24
	mov	x2, x20
	ldr	x8, [sp, #328]                  ; 8-byte Folded Reload
	blr	x8
	ldr	x9, [sp, #240]                  ; 8-byte Folded Reload
	and	w8, w0, #0xff
	cmp	w8, #1
	mov	x1, x20
	cset	w23, eq
	b	LBB2_55
LBB2_20:                                ; %vector.ph
	ldr	x9, [sp, #208]                  ; 8-byte Folded Reload
	and	x8, x27, #0xfffffffffffffffe
	lsl	x10, x28, #1
	neg	x11, x8
	ldr	x12, [sp, #240]                 ; 8-byte Folded Reload
	add	x9, x9, #8
LBB2_21:                                ; %vector.body
                                        ; =>This Inner Loop Header: Depth=1
	add	x13, x12, x28
	adds	x11, x11, #2
	stp	x12, x13, [x9, #-8]
	add	x9, x9, #16
	add	x12, x12, x10
	b.ne	LBB2_21
; %bb.22:                               ; %middle.block
	cmp	x8, x27
	b.eq	LBB2_25
LBB2_23:                                ; %.lr.ph.preheader2703
	ldr	x9, [sp, #240]                  ; 8-byte Folded Reload
	ldr	x10, [sp, #208]                 ; 8-byte Folded Reload
	madd	x9, x8, x28, x9
	add	x10, x10, x8, lsl #3
	sub	x8, x8, x27
LBB2_24:                                ; %.lr.ph
                                        ; =>This Inner Loop Header: Depth=1
	str	x9, [x10], #8
	add	x9, x9, x28
	adds	x8, x8, #1
	b.lo	LBB2_24
LBB2_25:                                ; %._crit_edge
	ldr	x0, [sp, #192]                  ; 8-byte Folded Reload
	mov	w1, #8
	bl	_roc_alloc
	str	x0, [sp, #200]                  ; 8-byte Folded Spill
	tbz	w19, #0, LBB2_29
; %bb.26:
	cbz	x0, LBB2_49
; %bb.27:
	lsr	x9, x27, #1
	lsr	x11, x27, #2
	sub	x8, x27, x9
	lsl	x13, x9, #3
	lsr	x12, x8, #1
	sub	x10, x9, x11
	lsl	x14, x11, #3
	cmp	x11, x10
	str	x8, [sp, #152]                  ; 8-byte Folded Spill
	ldr	x8, [sp, #208]                  ; 8-byte Folded Reload
	stp	x13, x9, [sp, #112]             ; 16-byte Folded Spill
	add	x9, x12, x9
	stp	x12, x11, [sp, #176]            ; 16-byte Folded Spill
	lsl	x12, x9, #3
	add	x25, x8, x14
	add	x8, x8, x13
	stp	x9, x14, [sp, #96]              ; 16-byte Folded Spill
	stp	x8, x10, [sp, #128]             ; 16-byte Folded Spill
	b.hs	LBB2_115
; %bb.28:
	mov	x0, x24
	mov	w1, #1
	mov	x20, x12
	blr	x26
	mov	x19, x25
	ldr	x1, [x25]
	mov	x0, x24
	ldr	x8, [sp, #328]                  ; 8-byte Folded Reload
	ldr	x2, [x19, #8]!
	blr	x8
	and	w8, w0, #0xff
	mov	x12, x20
	cmp	w8, #1
	mov	x25, x19
	cset	w10, eq
	b	LBB2_116
LBB2_29:
	cbz	x0, LBB2_50
; %bb.30:
	lsr	x9, x27, #1
	ldr	x8, [sp, #208]                  ; 8-byte Folded Reload
	sub	x20, x27, x9
	lsl	x11, x9, #3
	lsr	x10, x20, #1
	lsr	x22, x27, #2
	sub	x21, x9, x22
	lsl	x12, x22, #3
	stp	x11, x9, [sp, #128]             ; 16-byte Folded Spill
	add	x9, x10, x9
	add	x13, x8, x12
	str	x10, [sp, #216]                 ; 8-byte Folded Spill
	add	x23, x8, x11
	lsl	x10, x9, #3
	cmp	x22, x21
	stp	x9, x12, [sp, #104]             ; 16-byte Folded Spill
	b.hs	LBB2_118
; %bb.31:
	mov	x19, x13
	ldr	x1, [x13]
	mov	x0, x24
	ldr	x8, [sp, #328]                  ; 8-byte Folded Reload
	mov	x28, x10
	ldr	x2, [x19, #8]!
	blr	x8
	and	w8, w0, #0xff
	mov	x10, x28
	cmp	w8, #1
	str	x19, [sp, #344]                 ; 8-byte Folded Spill
	cset	w8, eq
	str	x8, [sp, #288]                  ; 8-byte Folded Spill
	b	LBB2_119
LBB2_32:                                ; %vector.ph2410
	and	x8, x27, #0xfffffffffffffffe
	add	x9, x22, #8
	lsl	x10, x28, #1
	neg	x11, x8
	ldr	x12, [sp, #240]                 ; 8-byte Folded Reload
LBB2_33:                                ; %vector.body2415
                                        ; =>This Inner Loop Header: Depth=1
	add	x13, x12, x28
	adds	x11, x11, #2
	stp	x12, x13, [x9, #-8]
	add	x9, x9, #16
	add	x12, x12, x10
	b.ne	LBB2_33
; %bb.34:                               ; %middle.block2407
	cmp	x8, x27
	b.eq	LBB2_37
LBB2_35:                                ; %.lr.ph.i.preheader2692
	ldr	x9, [sp, #240]                  ; 8-byte Folded Reload
	add	x10, x22, x8, lsl #3
	madd	x9, x8, x28, x9
	sub	x8, x8, x27
LBB2_36:                                ; %.lr.ph.i
                                        ; =>This Inner Loop Header: Depth=1
	str	x9, [x10], #8
	add	x9, x9, x28
	adds	x8, x8, #1
	b.lo	LBB2_36
LBB2_37:                                ; %._crit_edge.i
	mov	x0, x22
	mov	x1, x27
	tbz	w19, #0, LBB2_39
; %bb.38:
	ldr	x2, [sp, #328]                  ; 8-byte Folded Reload
	ldr	x3, [sp, #360]                  ; 8-byte Folded Reload
	ldr	x4, [sp, #248]                  ; 8-byte Folded Reload
	bl	l_sort.quadsort_direct__anon_14343
	b	LBB2_40
LBB2_39:
	ldr	x2, [sp, #328]                  ; 8-byte Folded Reload
	ldr	x3, [sp, #360]                  ; 8-byte Folded Reload
	bl	l_sort.quadsort_direct__anon_14344
LBB2_40:
	mul	x19, x28, x27
	mov	w1, w24
	mov	x0, x19
	bl	_roc_alloc
	cbz	x0, LBB2_1256
; %bb.41:                               ; %.preheader.i
	mov	x20, x0
	cbz	x27, LBB2_44
; %bb.42:
	mov	x23, x20
	mov	x21, x22
LBB2_43:                                ; %.lr.ph16.i
                                        ; =>This Inner Loop Header: Depth=1
	ldr	x1, [x21], #8
	mov	x0, x23
	ldr	x8, [sp, #264]                  ; 8-byte Folded Reload
	blr	x8
	subs	x27, x27, #1
	add	x23, x23, x28
	b.ne	LBB2_43
LBB2_44:                                ; %._crit_edge17.i
	ldr	x0, [sp, #240]                  ; 8-byte Folded Reload
	mov	x1, x20
	mov	x2, x19
	bl	_memcpy
	mov	x0, x20
	mov	w1, w24
	bl	_roc_dealloc
	mov	x0, x22
	b	LBB2_1246
LBB2_45:
	ldr	x2, [sp, #328]                  ; 8-byte Folded Reload
	mov	x0, x9
	ldr	w5, [sp, #164]                  ; 4-byte Folded Reload
	mov	x1, x27
	mov	x3, x24
	mov	x4, x28
LBB2_46:
	ldr	x6, [sp, #264]                  ; 8-byte Folded Reload
	mov	x7, x26
	add	sp, sp, #1, lsl #12             ; =4096
	.cfi_def_cfa_offset 976
	add	sp, sp, #880
	.cfi_def_cfa_offset 96
	ldp	x29, x30, [sp, #80]             ; 16-byte Folded Reload
	ldp	x20, x19, [sp, #64]             ; 16-byte Folded Reload
	ldp	x22, x21, [sp, #48]             ; 16-byte Folded Reload
	ldp	x24, x23, [sp, #32]             ; 16-byte Folded Reload
	ldp	x26, x25, [sp, #16]             ; 16-byte Folded Reload
	ldp	x28, x27, [sp], #96             ; 16-byte Folded Reload
	.cfi_def_cfa_offset 0
	.cfi_restore w30
	.cfi_restore w29
	.cfi_restore w19
	.cfi_restore w20
	.cfi_restore w21
	.cfi_restore w22
	.cfi_restore w23
	.cfi_restore w24
	.cfi_restore w25
	.cfi_restore w26
	.cfi_restore w27
	.cfi_restore w28
	b	l_sort.quadsort_direct__anon_14341
LBB2_47:
	.cfi_restore_state
	.cfi_remember_state
	ldr	x2, [sp, #328]                  ; 8-byte Folded Reload
	mov	x0, x9
	ldr	w5, [sp, #164]                  ; 4-byte Folded Reload
	mov	x1, x27
	mov	x3, x24
	mov	x4, x28
LBB2_48:
	ldr	x6, [sp, #264]                  ; 8-byte Folded Reload
	add	sp, sp, #1, lsl #12             ; =4096
	.cfi_def_cfa_offset 976
	add	sp, sp, #880
	.cfi_def_cfa_offset 96
	ldp	x29, x30, [sp, #80]             ; 16-byte Folded Reload
	ldp	x20, x19, [sp, #64]             ; 16-byte Folded Reload
	ldp	x22, x21, [sp, #48]             ; 16-byte Folded Reload
	ldp	x24, x23, [sp, #32]             ; 16-byte Folded Reload
	ldp	x26, x25, [sp, #16]             ; 16-byte Folded Reload
	ldp	x28, x27, [sp], #96             ; 16-byte Folded Reload
	.cfi_def_cfa_offset 0
	.cfi_restore w30
	.cfi_restore w29
	.cfi_restore w19
	.cfi_restore w20
	.cfi_restore w21
	.cfi_restore w22
	.cfi_restore w23
	.cfi_restore w24
	.cfi_restore w25
	.cfi_restore w26
	.cfi_restore w27
	.cfi_restore w28
	b	l_sort.quadsort_direct__anon_14342
LBB2_49:
	.cfi_restore_state
	.cfi_remember_state
	ldr	x0, [sp, #208]                  ; 8-byte Folded Reload
	mov	x1, x27
	ldr	x2, [sp, #328]                  ; 8-byte Folded Reload
	mov	x3, x24
	mov	x4, x26
	bl	l_sort.quadsort_direct__anon_14343
	b	LBB2_1242
LBB2_50:
	ldr	x0, [sp, #208]                  ; 8-byte Folded Reload
	mov	x1, x27
	ldr	x2, [sp, #328]                  ; 8-byte Folded Reload
	mov	x3, x24
	bl	l_sort.quadsort_direct__anon_14344
	b	LBB2_1242
LBB2_51:
	str	xzr, [sp, #224]                 ; 8-byte Folded Spill
LBB2_52:
	ldr	x8, [sp, #128]                  ; 8-byte Folded Reload
	sub	x10, x19, x8
	cmp	x21, x8
	str	x10, [sp, #136]                 ; 8-byte Folded Spill
	ldr	x10, [sp, #88]                  ; 8-byte Folded Reload
	add	x9, x9, x10
	str	x9, [sp, #312]                  ; 8-byte Folded Spill
	b.hs	LBB2_58
; %bb.53:
	mov	x0, x24
	mov	w1, #1
	ldr	x8, [sp, #248]                  ; 8-byte Folded Reload
	add	x22, x23, x28
	blr	x8
	mov	x0, x24
	mov	x1, x23
	mov	x2, x22
	ldr	x8, [sp, #328]                  ; 8-byte Folded Reload
	str	x22, [sp, #304]                 ; 8-byte Folded Spill
	blr	x8
	and	w8, w0, #0xff
	cmp	w8, #1
	cset	w8, eq
	str	x8, [sp, #232]                  ; 8-byte Folded Spill
	b	LBB2_59
LBB2_54:
	mov	x23, xzr
LBB2_55:
	ldr	x8, [sp, #128]                  ; 8-byte Folded Reload
	add	x17, x9, x19
	ldr	x10, [sp, #144]                 ; 8-byte Folded Reload
	mov	x22, x1
	sub	x8, x8, x10
	cmp	x26, x10
	str	x8, [sp, #136]                  ; 8-byte Folded Spill
	b.hs	LBB2_61
; %bb.56:
	ldr	x1, [sp, #96]                   ; 8-byte Folded Reload
	mov	x0, x24
	ldr	x8, [sp, #328]                  ; 8-byte Folded Reload
	mov	x20, x17
	add	x21, x1, x28
	mov	x2, x21
	blr	x8
	and	w8, w0, #0xff
	mov	x17, x20
	cmp	w8, #1
	ldr	x8, [sp, #136]                  ; 8-byte Folded Reload
	cset	w9, eq
	str	x9, [sp, #232]                  ; 8-byte Folded Spill
	cmp	x26, x8
	b.lo	LBB2_62
LBB2_57:
	mov	x20, xzr
	b	LBB2_63
LBB2_58:
	str	xzr, [sp, #232]                 ; 8-byte Folded Spill
	str	x23, [sp, #304]                 ; 8-byte Folded Spill
LBB2_59:
	ldr	x8, [sp, #136]                  ; 8-byte Folded Reload
	cmp	x21, x8
	b.hs	LBB2_73
; %bb.60:
	ldr	x22, [sp, #312]                 ; 8-byte Folded Reload
	mov	x0, x24
	mov	w1, #1
	ldr	x8, [sp, #248]                  ; 8-byte Folded Reload
	str	x20, [sp, #344]                 ; 8-byte Folded Spill
	add	x20, x22, x28
	blr	x8
	mov	x0, x24
	mov	x1, x22
	mov	x2, x20
	ldr	x8, [sp, #328]                  ; 8-byte Folded Reload
	blr	x8
	str	x20, [sp, #312]                 ; 8-byte Folded Spill
	ldr	x20, [sp, #344]                 ; 8-byte Folded Reload
	and	w8, w0, #0xff
	cmp	w8, #1
	cset	w0, eq
	b	LBB2_74
LBB2_61:
	ldr	x21, [sp, #96]                  ; 8-byte Folded Reload
	str	xzr, [sp, #232]                 ; 8-byte Folded Spill
	cmp	x26, x8
	b.hs	LBB2_57
LBB2_62:
	add	x20, x17, x28
	mov	x0, x24
	mov	x1, x17
	mov	x2, x20
	ldr	x8, [sp, #328]                  ; 8-byte Folded Reload
	blr	x8
	and	w8, w0, #0xff
	mov	x17, x20
	cmp	w8, #1
	cset	w20, eq
LBB2_63:
	ldr	x9, [sp, #240]                  ; 8-byte Folded Reload
	mov	x11, x22
	cmp	x27, #133
	str	x19, [sp, #56]                  ; 8-byte Folded Spill
	str	x26, [sp, #112]                 ; 8-byte Folded Spill
	b.lo	LBB2_85
; %bb.64:                               ; %.preheader461.lr.ph.i.i
	add	x8, x28, x28, lsl #1
	mov	x0, xzr
	lsl	x8, x8, #5
	mov	x22, x9
	mov	x2, x27
	ldr	x25, [sp, #360]                 ; 8-byte Folded Reload
	str	wzr, [sp, #184]                 ; 4-byte Folded Spill
	str	wzr, [sp, #192]                 ; 4-byte Folded Spill
	str	wzr, [sp, #200]                 ; 4-byte Folded Spill
	str	wzr, [sp, #208]                 ; 4-byte Folded Spill
	str	x8, [sp, #176]                  ; 8-byte Folded Spill
	b	LBB2_68
LBB2_65:                                ;   in Loop: Header=BB2_68 Depth=1
	ldr	x28, [sp, #352]                 ; 8-byte Folded Reload
LBB2_66:                                ; %.critedge.i.i22
                                        ;   in Loop: Header=BB2_68 Depth=1
	str	x1, [sp, #232]                  ; 8-byte Folded Spill
	mov	x17, x11
	mov	x21, x10
	mov	x11, x9
	mov	x22, x8
LBB2_67:                                ; %.critedge.i.i22
                                        ;   in Loop: Header=BB2_68 Depth=1
	sub	x2, x2, #128
	cmp	x2, #132
	b.ls	LBB2_86
LBB2_68:                                ; %.preheader461.i.i
                                        ; =>This Loop Header: Depth=1
                                        ;     Child Loop BB2_69 Depth 2
	add	x8, x22, x28
	stp	x23, x0, [sp, #216]             ; 16-byte Folded Spill
	mov	x19, xzr
	mov	w24, wzr
	mov	w26, wzr
	mov	w27, wzr
	stp	x8, x22, [sp, #296]             ; 16-byte Folded Spill
	add	x8, x11, x28
	mov	w15, wzr
	mov	x23, #-32
	str	x11, [sp, #320]                 ; 8-byte Folded Spill
	str	x8, [sp, #288]                  ; 8-byte Folded Spill
	add	x8, x21, x28
	stp	x2, x20, [sp, #248]             ; 16-byte Folded Spill
	str	x17, [sp, #312]                 ; 8-byte Folded Spill
	str	x8, [sp, #280]                  ; 8-byte Folded Spill
	add	x8, x17, x28
	ldr	x28, [sp, #328]                 ; 8-byte Folded Reload
	str	x8, [sp, #272]                  ; 8-byte Folded Spill
LBB2_69:                                ;   Parent Loop BB2_68 Depth=1
                                        ; =>  This Inner Loop Header: Depth=2
	ldr	x8, [sp, #320]                  ; 8-byte Folded Reload
	add	x1, x22, x19
	mov	x0, x25
	add	x22, x21, x19
	add	x20, x8, x19
	add	x8, x17, x19
	stp	x8, x15, [sp, #336]             ; 16-byte Folded Spill
	ldr	x8, [sp, #296]                  ; 8-byte Folded Reload
	add	x2, x8, x19
	blr	x28
	ldr	x8, [sp, #288]                  ; 8-byte Folded Reload
	mov	x1, x20
	add	x2, x8, x19
	and	w8, w0, #0xff
	mov	x0, x25
	cmp	w8, #1
	cinc	w24, w24, eq
	blr	x28
	ldr	x8, [sp, #280]                  ; 8-byte Folded Reload
	mov	x1, x22
	ldr	x22, [sp, #304]                 ; 8-byte Folded Reload
	add	x2, x8, x19
	and	w8, w0, #0xff
	mov	x0, x25
	cmp	w8, #1
	cinc	w26, w26, eq
	blr	x28
	ldr	x8, [sp, #272]                  ; 8-byte Folded Reload
	ldr	x1, [sp, #336]                  ; 8-byte Folded Reload
	add	x2, x8, x19
	and	w8, w0, #0xff
	mov	x0, x25
	cmp	w8, #1
	cinc	w27, w27, eq
	blr	x28
	ldp	x15, x8, [sp, #344]             ; 16-byte Folded Reload
	ldr	x17, [sp, #312]                 ; 8-byte Folded Reload
	add	x19, x19, x8
	and	w8, w0, #0xff
	cmp	w8, #1
	cinc	w15, w15, eq
	adds	x23, x23, #1
	b.lo	LBB2_69
; %bb.70:                               ;   in Loop: Header=BB2_68 Depth=1
	ldr	w8, [sp, #184]                  ; 4-byte Folded Reload
	mov	w9, #223
	tst	w24, w9
	ldr	x1, [sp, #232]                  ; 8-byte Folded Reload
	ldp	x23, x0, [sp, #216]             ; 16-byte Folded Reload
	cinc	w8, w8, eq
	tst	w26, w9
	ldp	x2, x20, [sp, #248]             ; 16-byte Folded Reload
	add	x1, x1, w27, uxtb
	add	x10, x21, x19
	str	w8, [sp, #184]                  ; 4-byte Folded Spill
	ldr	w8, [sp, #192]                  ; 4-byte Folded Reload
	ldr	x16, [sp, #320]                 ; 8-byte Folded Reload
	add	x0, x0, w24, uxtb
	add	x23, x23, w26, uxtb
	add	x11, x17, x19
	cinc	w8, w8, eq
	tst	w27, w9
	add	x20, x20, w15, uxtb
	str	w8, [sp, #192]                  ; 4-byte Folded Spill
	ldr	w8, [sp, #200]                  ; 4-byte Folded Reload
	cinc	w8, w8, eq
	tst	w15, w9
	add	x9, x16, x19
	str	w8, [sp, #200]                  ; 4-byte Folded Spill
	ldr	w8, [sp, #208]                  ; 4-byte Folded Reload
	cinc	w8, w8, eq
	cmp	x2, #516
	str	w8, [sp, #208]                  ; 4-byte Folded Spill
	add	x8, x22, x19
	b.ls	LBB2_65
; %bb.71:                               ;   in Loop: Header=BB2_68 Depth=1
	and	w12, w24, #0xffffffdf
	and	w15, w15, #0xffffffdf
	tst	w12, #0xff
	and	w13, w26, #0xffffffdf
	cset	w12, eq
	tst	w15, #0xff
	and	w14, w27, #0xffffffdf
	csetm	w15, eq
	tst	w13, #0xff
	ldr	x28, [sp, #352]                 ; 8-byte Folded Reload
	cinc	w12, w12, eq
	tst	w14, #0xff
	cinc	w12, w12, eq
	cmp	w12, w15
	b.ne	LBB2_66
; %bb.72:                               ;   in Loop: Header=BB2_68 Depth=1
	ldr	x9, [sp, #176]                  ; 8-byte Folded Reload
	add	x0, x0, #48
	add	x23, x23, #48
	add	x1, x1, #48
	add	x20, x20, #48
	sub	x2, x2, #384
	add	x8, x22, x9
	add	x22, x8, x19
	add	x8, x16, x9
	add	x11, x8, x19
	add	x8, x21, x9
	add	x21, x8, x19
	add	x8, x17, x9
	add	x17, x8, x19
	str	x1, [sp, #232]                  ; 8-byte Folded Spill
	b	LBB2_67
LBB2_73:
	mov	x0, xzr
LBB2_74:
	ldr	x9, [sp, #240]                  ; 8-byte Folded Reload
	cmp	x27, #133
	str	x23, [sp, #64]                  ; 8-byte Folded Spill
	stp	x19, x21, [sp, #96]             ; 16-byte Folded Spill
	b.lo	LBB2_99
; %bb.75:                               ; %.lr.ph.i.i
	ldp	x23, x25, [sp, #304]            ; 16-byte Folded Reload
	add	x8, x28, x28, lsl #1
	mov	x21, xzr
	lsl	x8, x8, #5
	mov	x3, x27
	ldr	x22, [sp, #248]                 ; 8-byte Folded Reload
	str	wzr, [sp, #184]                 ; 4-byte Folded Spill
	str	wzr, [sp, #192]                 ; 4-byte Folded Spill
	str	wzr, [sp, #200]                 ; 4-byte Folded Spill
	str	wzr, [sp, #208]                 ; 4-byte Folded Spill
	str	x8, [sp, #144]                  ; 8-byte Folded Spill
	str	x9, [sp, #320]                  ; 8-byte Folded Spill
	b	LBB2_79
LBB2_76:                                ;   in Loop: Header=BB2_79 Depth=1
	mov	x20, x9
	ldr	x24, [sp, #360]                 ; 8-byte Folded Reload
	ldr	x27, [sp, #168]                 ; 8-byte Folded Reload
	stp	x2, x1, [sp, #224]              ; 16-byte Folded Spill
LBB2_77:                                ; %.critedge.i.i
                                        ;   in Loop: Header=BB2_79 Depth=1
	str	x8, [sp, #320]                  ; 8-byte Folded Spill
LBB2_78:                                ; %.critedge.i.i
                                        ;   in Loop: Header=BB2_79 Depth=1
	ldr	x22, [sp, #248]                 ; 8-byte Folded Reload
	sub	x3, x3, #128
	cmp	x3, #132
	b.ls	LBB2_100
LBB2_79:                                ; =>This Loop Header: Depth=1
                                        ;     Child Loop BB2_80 Depth 2
	str	x0, [sp, #256]                  ; 8-byte Folded Spill
	mov	x0, x24
	mov	w1, #128
	str	x25, [sp, #312]                 ; 8-byte Folded Spill
	str	x3, [sp, #176]                  ; 8-byte Folded Spill
	str	x21, [sp, #216]                 ; 8-byte Folded Spill
	blr	x22
	ldr	x8, [sp, #320]                  ; 8-byte Folded Reload
	mov	x19, xzr
	mov	w26, wzr
	mov	w22, wzr
	mov	w27, wzr
	mov	w24, wzr
	add	x8, x8, x28
	stp	x8, x23, [sp, #296]             ; 16-byte Folded Spill
	add	x8, x20, x28
	str	x8, [sp, #288]                  ; 8-byte Folded Spill
	add	x8, x23, x28
	mov	x23, #-32
	str	x8, [sp, #280]                  ; 8-byte Folded Spill
	add	x8, x25, x28
	ldr	x25, [sp, #328]                 ; 8-byte Folded Reload
	str	x8, [sp, #272]                  ; 8-byte Folded Spill
LBB2_80:                                ;   Parent Loop BB2_79 Depth=1
                                        ; =>  This Inner Loop Header: Depth=2
	ldr	x8, [sp, #320]                  ; 8-byte Folded Reload
	add	x21, x20, x19
	ldr	x28, [sp, #360]                 ; 8-byte Folded Reload
	add	x1, x8, x19
	ldr	x8, [sp, #304]                  ; 8-byte Folded Reload
	mov	x0, x28
	add	x8, x8, x19
	str	x8, [sp, #336]                  ; 8-byte Folded Spill
	ldr	x8, [sp, #312]                  ; 8-byte Folded Reload
	add	x8, x8, x19
	str	x8, [sp, #344]                  ; 8-byte Folded Spill
	ldr	x8, [sp, #296]                  ; 8-byte Folded Reload
	add	x2, x8, x19
	blr	x25
	ldr	x8, [sp, #288]                  ; 8-byte Folded Reload
	mov	x1, x21
	add	x2, x8, x19
	and	w8, w0, #0xff
	mov	x0, x28
	cmp	w8, #1
	cinc	w26, w26, eq
	blr	x25
	ldr	x8, [sp, #280]                  ; 8-byte Folded Reload
	ldr	x1, [sp, #336]                  ; 8-byte Folded Reload
	ldr	x21, [sp, #352]                 ; 8-byte Folded Reload
	add	x2, x8, x19
	and	w8, w0, #0xff
	mov	x0, x28
	cmp	w8, #1
	cinc	w22, w22, eq
	blr	x25
	ldr	x8, [sp, #272]                  ; 8-byte Folded Reload
	ldr	x1, [sp, #344]                  ; 8-byte Folded Reload
	add	x2, x8, x19
	and	w8, w0, #0xff
	mov	x0, x28
	cmp	w8, #1
	cinc	w27, w27, eq
	blr	x25
	and	w8, w0, #0xff
	add	x19, x19, x21
	cmp	w8, #1
	cinc	w24, w24, eq
	adds	x23, x23, #1
	b.lo	LBB2_80
; %bb.81:                               ;   in Loop: Header=BB2_79 Depth=1
	ldr	w8, [sp, #184]                  ; 4-byte Folded Reload
	mov	w9, #223
	tst	w26, w9
	mov	x28, x21
	ldp	x21, x2, [sp, #216]             ; 16-byte Folded Reload
	cinc	w8, w8, eq
	tst	w22, w9
	ldr	x1, [sp, #232]                  ; 8-byte Folded Reload
	ldr	x0, [sp, #256]                  ; 8-byte Folded Reload
	str	w8, [sp, #184]                  ; 4-byte Folded Spill
	ldr	w8, [sp, #192]                  ; 4-byte Folded Reload
	ldr	x16, [sp, #304]                 ; 8-byte Folded Reload
	add	x21, x21, w26, uxtb
	ldr	x3, [sp, #176]                  ; 8-byte Folded Reload
	add	x2, x2, w22, uxtb
	cinc	w8, w8, eq
	tst	w27, w9
	add	x1, x1, w27, uxtb
	add	x0, x0, w24, uxtb
	add	x23, x16, x19
	str	w8, [sp, #192]                  ; 4-byte Folded Spill
	ldr	w8, [sp, #200]                  ; 4-byte Folded Reload
	cinc	w8, w8, eq
	tst	w24, w9
	add	x9, x20, x19
	str	w8, [sp, #200]                  ; 4-byte Folded Spill
	ldr	w8, [sp, #208]                  ; 4-byte Folded Reload
	cinc	w8, w8, eq
	cmp	x3, #516
	str	w8, [sp, #208]                  ; 4-byte Folded Spill
	ldp	x17, x8, [sp, #312]             ; 16-byte Folded Reload
	add	x25, x17, x19
	add	x8, x8, x19
	b.ls	LBB2_76
; %bb.82:                               ;   in Loop: Header=BB2_79 Depth=1
	and	w12, w26, #0xffffffdf
	and	w15, w24, #0xffffffdf
	tst	w12, #0xff
	and	w13, w22, #0xffffffdf
	cset	w12, eq
	tst	w15, #0xff
	and	w14, w27, #0xffffffdf
	csetm	w15, eq
	tst	w13, #0xff
	ldr	x27, [sp, #168]                 ; 8-byte Folded Reload
	cinc	w12, w12, eq
	tst	w14, #0xff
	cinc	w12, w12, eq
	cmp	w12, w15
	b.ne	LBB2_84
; %bb.83:                               ;   in Loop: Header=BB2_79 Depth=1
	ldr	x8, [sp, #320]                  ; 8-byte Folded Reload
	add	x2, x2, #48
	ldr	x9, [sp, #144]                  ; 8-byte Folded Reload
	add	x1, x1, #48
	ldr	x24, [sp, #360]                 ; 8-byte Folded Reload
	add	x21, x21, #48
	add	x0, x0, #48
	sub	x3, x3, #384
	add	x8, x8, x9
	stp	x2, x1, [sp, #224]              ; 16-byte Folded Spill
	add	x8, x8, x19
	str	x8, [sp, #320]                  ; 8-byte Folded Spill
	add	x8, x20, x9
	add	x20, x8, x19
	add	x8, x16, x9
	add	x23, x8, x19
	add	x8, x17, x9
	add	x25, x8, x19
	b	LBB2_78
LBB2_84:                                ;   in Loop: Header=BB2_79 Depth=1
	ldr	x24, [sp, #360]                 ; 8-byte Folded Reload
	stp	x2, x1, [sp, #224]              ; 16-byte Folded Spill
	mov	x20, x9
	b	LBB2_77
LBB2_85:
	str	wzr, [sp, #184]                 ; 4-byte Folded Spill
	mov	x0, xzr
	str	wzr, [sp, #192]                 ; 4-byte Folded Spill
	mov	w2, #132
	str	wzr, [sp, #200]                 ; 4-byte Folded Spill
	mov	x22, x9
	str	wzr, [sp, #208]                 ; 4-byte Folded Spill
	b	LBB2_87
LBB2_86:                                ; %.preheader.i.i
	ldr	x24, [sp, #360]                 ; 8-byte Folded Reload
	cmp	x2, #8
	ldr	x26, [sp, #112]                 ; 8-byte Folded Reload
	b.lo	LBB2_90
LBB2_87:                                ; %.lr.ph.i.i24.preheader
	mov	x26, x0
	ldr	x24, [sp, #232]                 ; 8-byte Folded Reload
	ldr	x25, [sp, #352]                 ; 8-byte Folded Reload
	ldr	x28, [sp, #328]                 ; 8-byte Folded Reload
LBB2_88:                                ; %.lr.ph.i.i24
                                        ; =>This Inner Loop Header: Depth=1
	stp	x2, x20, [sp, #248]             ; 16-byte Folded Spill
	ldr	x20, [sp, #360]                 ; 8-byte Folded Reload
	mov	x1, x22
	str	x17, [sp, #344]                 ; 8-byte Folded Spill
	add	x19, x1, x25
	mov	x22, x11
	mov	x0, x20
	mov	x2, x19
	blr	x28
	add	x27, x22, x25
	and	w8, w0, #0xff
	mov	x0, x20
	mov	x1, x22
	mov	x2, x27
	cmp	w8, #1
	cinc	x26, x26, eq
	mov	x22, x19
	blr	x28
	add	x9, x21, x25
	and	w8, w0, #0xff
	mov	x0, x20
	mov	x1, x21
	mov	x2, x9
	cmp	w8, #1
	cinc	x23, x23, eq
	mov	x21, x9
	blr	x28
	ldr	x1, [sp, #344]                  ; 8-byte Folded Reload
	and	w8, w0, #0xff
	mov	x0, x20
	ldr	x20, [sp, #256]                 ; 8-byte Folded Reload
	cmp	w8, #1
	add	x19, x1, x25
	cinc	x24, x24, eq
	mov	x2, x19
	blr	x28
	ldr	x2, [sp, #248]                  ; 8-byte Folded Reload
	and	w8, w0, #0xff
	cmp	w8, #1
	mov	x11, x27
	mov	x17, x19
	cinc	x20, x20, eq
	sub	x2, x2, #4
	cmp	x2, #7
	b.hi	LBB2_88
; %bb.89:
	str	x24, [sp, #232]                 ; 8-byte Folded Spill
	mov	x0, x26
	ldp	x28, x24, [sp, #352]            ; 16-byte Folded Reload
	ldr	x26, [sp, #112]                 ; 8-byte Folded Reload
LBB2_90:                                ; %._crit_edge.i.i27
	ldr	x19, [sp, #232]                 ; 8-byte Folded Reload
	stp	x17, x11, [sp, #312]            ; 16-byte Folded Spill
	str	x0, [sp, #224]                  ; 8-byte Folded Spill
	add	x8, x19, x0
	add	x8, x23, x8
	cmn	x8, x20
	b.ne	LBB2_94
; %bb.91:
	add	x2, x22, x28
	mov	x0, x24
	mov	x1, x22
	ldr	x8, [sp, #328]                  ; 8-byte Folded Reload
	blr	x8
	ldr	x11, [sp, #320]                 ; 8-byte Folded Reload
	and	w8, w0, #0xff
	ldr	x0, [sp, #224]                  ; 8-byte Folded Reload
	cmp	w8, #1
	b.eq	LBB2_94
; %bb.92:
	add	x2, x11, x28
	mov	x0, x24
	mov	x1, x11
	ldr	x8, [sp, #328]                  ; 8-byte Folded Reload
	blr	x8
	ldr	x11, [sp, #320]                 ; 8-byte Folded Reload
	and	w8, w0, #0xff
	ldr	x0, [sp, #224]                  ; 8-byte Folded Reload
	cmp	w8, #1
	b.eq	LBB2_94
; %bb.93:
	add	x2, x21, x28
	mov	x0, x24
	mov	x1, x21
	ldr	x8, [sp, #328]                  ; 8-byte Folded Reload
	blr	x8
	ldr	x11, [sp, #320]                 ; 8-byte Folded Reload
	and	w8, w0, #0xff
	ldr	x0, [sp, #224]                  ; 8-byte Folded Reload
	cmp	w8, #1
	b.ne	LBB2_916
LBB2_94:                                ; %.critedge2.i.i31
	ldr	x8, [sp, #104]                  ; 8-byte Folded Reload
	str	x21, [sp, #344]                 ; 8-byte Folded Spill
	sub	x12, x26, x0
	str	x22, [sp, #304]                 ; 8-byte Folded Spill
	cmp	x12, #1
	sub	x10, x8, x23
	ldr	x8, [sp, #144]                  ; 8-byte Folded Reload
	sub	x21, x8, x19
	ldr	x8, [sp, #136]                  ; 8-byte Folded Reload
	sub	x25, x8, x20
	b.eq	LBB2_171
; %bb.95:                               ; %.critedge2.i.i31
	cmp	x10, #1
	b.eq	LBB2_171
; %bb.96:                               ; %.critedge2.i.i31
	cmp	x21, #1
	b.eq	LBB2_171
; %bb.97:                               ; %.critedge2.i.i31
	cmp	x25, #1
	b.eq	LBB2_171
; %bb.98:
	ldr	x12, [sp, #168]                 ; 8-byte Folded Reload
	b	LBB2_600
LBB2_99:
	ldp	x23, x25, [sp, #304]            ; 16-byte Folded Reload
	str	wzr, [sp, #184]                 ; 4-byte Folded Spill
	mov	x21, xzr
	ldr	x22, [sp, #248]                 ; 8-byte Folded Reload
	str	wzr, [sp, #192]                 ; 4-byte Folded Spill
	str	wzr, [sp, #200]                 ; 4-byte Folded Spill
	mov	w3, #132
	str	wzr, [sp, #208]                 ; 4-byte Folded Spill
	str	x9, [sp, #320]                  ; 8-byte Folded Spill
	b	LBB2_101
LBB2_100:                               ; %._crit_edge.i.i
	cmp	x3, #7
	b.ls	LBB2_104
LBB2_101:                               ; %.lr.ph507.preheader.i.i
	and	x8, x3, #0xfc
	mov	x28, x3
	sub	x1, x8, #4
	mov	x8, x22
	mov	x22, x0
	mov	x0, x24
	mov	x26, x23
	blr	x8
	mov	x9, x20
	ldr	x19, [sp, #360]                 ; 8-byte Folded Reload
	ldp	x23, x20, [sp, #320]            ; 16-byte Folded Reload
	ldp	x24, x27, [sp, #224]            ; 16-byte Folded Reload
LBB2_102:                               ; %.lr.ph507.i.i
                                        ; =>This Inner Loop Header: Depth=1
	str	x22, [sp, #256]                 ; 8-byte Folded Spill
	ldr	x22, [sp, #352]                 ; 8-byte Folded Reload
	mov	x1, x23
	mov	x0, x19
	ldr	x8, [sp, #328]                  ; 8-byte Folded Reload
	str	x25, [sp, #336]                 ; 8-byte Folded Spill
	add	x23, x23, x22
	mov	x25, x26
	mov	x2, x23
	mov	x26, x9
	blr	x8
	add	x2, x26, x22
	and	w8, w0, #0xff
	mov	x0, x19
	mov	x1, x26
	cmp	w8, #1
	str	x2, [sp, #344]                  ; 8-byte Folded Spill
	cinc	x21, x21, eq
	blr	x20
	add	x26, x25, x22
	and	w8, w0, #0xff
	mov	x0, x19
	mov	x1, x25
	mov	x2, x26
	cmp	w8, #1
	cinc	x24, x24, eq
	blr	x20
	ldr	x1, [sp, #336]                  ; 8-byte Folded Reload
	and	w8, w0, #0xff
	mov	x0, x19
	cmp	w8, #1
	cinc	x27, x27, eq
	add	x25, x1, x22
	ldr	x22, [sp, #256]                 ; 8-byte Folded Reload
	mov	x2, x25
	blr	x20
	and	w8, w0, #0xff
	ldr	x9, [sp, #344]                  ; 8-byte Folded Reload
	cmp	w8, #1
	sub	x28, x28, #4
	cinc	x22, x22, eq
	cmp	x28, #7
	b.hi	LBB2_102
; %bb.103:
	stp	x24, x27, [sp, #224]            ; 16-byte Folded Spill
	ldr	x27, [sp, #168]                 ; 8-byte Folded Reload
	ldp	x28, x24, [sp, #352]            ; 16-byte Folded Reload
	str	x23, [sp, #320]                 ; 8-byte Folded Spill
	mov	x20, x9
	mov	x0, x22
	ldr	x22, [sp, #248]                 ; 8-byte Folded Reload
	mov	x23, x26
LBB2_104:                               ; %._crit_edge508.i.i
	ldp	x9, x8, [sp, #224]              ; 16-byte Folded Reload
	str	x20, [sp, #344]                 ; 8-byte Folded Spill
	str	x0, [sp, #256]                  ; 8-byte Folded Spill
	add	x8, x8, x21
	add	x8, x9, x8
	cmn	x8, x0
	b.ne	LBB2_108
; %bb.105:
	ldr	x19, [sp, #320]                 ; 8-byte Folded Reload
	mov	x0, x24
	mov	w1, #1
	mov	x26, x23
	add	x20, x19, x28
	blr	x22
	mov	x0, x24
	mov	x1, x19
	mov	x2, x20
	ldr	x8, [sp, #328]                  ; 8-byte Folded Reload
	ldr	x20, [sp, #344]                 ; 8-byte Folded Reload
	blr	x8
	and	w8, w0, #0xff
	ldr	x0, [sp, #256]                  ; 8-byte Folded Reload
	cmp	w8, #1
	b.eq	LBB2_108
; %bb.106:
	ldr	x8, [sp, #344]                  ; 8-byte Folded Reload
	mov	x0, x24
	mov	w1, #1
	add	x20, x8, x28
	blr	x22
	mov	x0, x24
	ldr	x1, [sp, #344]                  ; 8-byte Folded Reload
	mov	x2, x20
	ldr	x8, [sp, #328]                  ; 8-byte Folded Reload
	ldr	x20, [sp, #344]                 ; 8-byte Folded Reload
	blr	x8
	mov	x23, x26
	and	w8, w0, #0xff
	ldr	x0, [sp, #256]                  ; 8-byte Folded Reload
	cmp	w8, #1
	b.eq	LBB2_108
; %bb.107:
	mov	x0, x24
	mov	w1, #1
	add	x20, x23, x28
	blr	x22
	mov	x0, x24
	mov	x1, x26
	mov	x2, x20
	ldr	x8, [sp, #328]                  ; 8-byte Folded Reload
	ldr	x20, [sp, #344]                 ; 8-byte Folded Reload
	blr	x8
	mov	x23, x26
	and	w8, w0, #0xff
	ldr	x0, [sp, #256]                  ; 8-byte Folded Reload
	cmp	w8, #1
	b.ne	LBB2_916
LBB2_108:                               ; %.critedge2.i.i
	ldr	x8, [sp, #104]                  ; 8-byte Folded Reload
	str	x23, [sp, #304]                 ; 8-byte Folded Spill
	ldr	x9, [sp, #224]                  ; 8-byte Folded Reload
	str	x21, [sp, #216]                 ; 8-byte Folded Spill
	sub	x11, x8, x21
	ldr	x8, [sp, #112]                  ; 8-byte Folded Reload
	cmp	x11, #1
	sub	x19, x8, x9
	ldr	x8, [sp, #128]                  ; 8-byte Folded Reload
	ldr	x9, [sp, #232]                  ; 8-byte Folded Reload
	sub	x9, x8, x9
	ldr	x8, [sp, #136]                  ; 8-byte Folded Reload
	sub	x8, x8, x0
	b.eq	LBB2_112
; %bb.109:                              ; %.critedge2.i.i
	cmp	x19, #1
	b.eq	LBB2_112
; %bb.110:                              ; %.critedge2.i.i
	cmp	x9, #1
	b.eq	LBB2_112
; %bb.111:                              ; %.critedge2.i.i
	cmp	x8, #1
	b.ne	LBB2_543
LBB2_112:
	mov	x0, x24
	mov	w1, #3
	cmp	x11, #1
	str	x11, [sp, #32]                  ; 8-byte Folded Spill
	cset	w23, eq
	str	x8, [sp, #176]                  ; 8-byte Folded Spill
	mov	x21, x9
	blr	x22
	cmp	x19, #1
	str	x19, [sp, #40]                  ; 8-byte Folded Spill
	csel	w19, wzr, w23, ne
	mov	x0, x24
	ldp	x1, x23, [sp, #320]             ; 16-byte Folded Reload
	mov	x22, x20
	cset	w20, eq
	mov	x26, x28
	add	x2, x1, x28
	str	x2, [sp, #288]                  ; 8-byte Folded Spill
	blr	x23
	and	w8, w0, #0xff
	add	x2, x22, x28
	cmp	w8, #1
	mov	x0, x24
	csel	w8, wzr, w19, ne
	mov	x1, x22
	cmp	x21, #1
	str	x21, [sp, #144]                 ; 8-byte Folded Spill
	cset	w19, eq
	csel	w20, wzr, w20, ne
	str	w8, [sp, #312]                  ; 4-byte Folded Spill
	str	x2, [sp, #296]                  ; 8-byte Folded Spill
	blr	x23
	ldr	x1, [sp, #304]                  ; 8-byte Folded Reload
	and	w8, w0, #0xff
	cmp	w8, #1
	ldr	x8, [sp, #176]                  ; 8-byte Folded Reload
	mov	x0, x24
	cset	w22, eq
	add	x2, x1, x28
	cmp	x8, #1
	csel	w21, wzr, w19, ne
	str	x2, [sp, #336]                  ; 8-byte Folded Spill
	blr	x23
	and	w9, w0, #0xff
	ldr	w10, [sp, #312]                 ; 4-byte Folded Reload
	cmp	w9, #1
	mov	w8, #2
	cset	w9, eq
	tst	w20, w22
	csel	w8, w8, wzr, ne
	tst	w21, w9
	mov	w9, #4
	orr	w8, w8, w10
	csel	w9, w9, wzr, ne
	orr	w8, w8, w9
Lloh0:
	adrp	x9, LJTI2_6@PAGE
Lloh1:
	add	x9, x9, LJTI2_6@PAGEOFF
	adr	x10, LBB2_113
	ldrh	w11, [x9, x8, lsl #1]
	add	x10, x10, x11, lsl #2
	ldr	x21, [sp, #304]                 ; 8-byte Folded Reload
	ldp	x22, x0, [sp, #248]             ; 16-byte Folded Reload
	str	x25, [sp, #312]                 ; 8-byte Folded Spill
	br	x10
LBB2_113:
	ldr	x10, [sp, #240]                 ; 8-byte Folded Reload
	lsl	x9, x28, #1
	ldr	x11, [sp, #344]                 ; 8-byte Folded Reload
	mov	x12, x28
	sub	x8, x11, x10
	udiv	x20, x8, x9
	mul	x8, x20, x28
	add	x19, x10, x8
	sub	x26, x11, x8
	tbnz	w20, #0, LBB2_390
; %bb.114:
	add	x0, sp, #1, lsl #12             ; =4096
	mov	x1, x19
	add	x0, x0, #784
	ldr	x21, [sp, #264]                 ; 8-byte Folded Reload
	blr	x21
	mov	x0, x19
	mov	x1, x26
	blr	x21
	add	x1, sp, #1, lsl #12             ; =4096
	neg	x8, x28
	add	x1, x1, #784
	mov	x0, x26
	sub	x19, x19, x28
	str	x8, [sp, #288]                  ; 8-byte Folded Spill
	blr	x21
	ldr	x10, [sp, #240]                 ; 8-byte Folded Reload
	add	x26, x26, x28
	sub	x20, x20, #1
	b	LBB2_391
LBB2_115:
	mov	x10, xzr
LBB2_116:
	ldr	x8, [sp, #152]                  ; 8-byte Folded Reload
	str	x12, [sp, #88]                  ; 8-byte Folded Spill
	ldr	x9, [sp, #176]                  ; 8-byte Folded Reload
	str	x10, [sp, #296]                 ; 8-byte Folded Spill
	sub	x19, x8, x9
	ldr	x8, [sp, #208]                  ; 8-byte Folded Reload
	add	x21, x8, x12
	ldr	x8, [sp, #184]                  ; 8-byte Folded Reload
	cmp	x8, x9
	b.hs	LBB2_122
; %bb.117:
	mov	x0, x24
	mov	w1, #1
	blr	x26
	ldr	x8, [sp, #128]                  ; 8-byte Folded Reload
	mov	x0, x24
	mov	x20, x8
	ldr	x1, [x8]
	ldr	x8, [sp, #328]                  ; 8-byte Folded Reload
	ldr	x2, [x20, #8]!
	blr	x8
	and	w8, w0, #0xff
	cmp	w8, #1
	cset	w9, eq
	b	LBB2_123
LBB2_118:
	str	x13, [sp, #344]                 ; 8-byte Folded Spill
	str	xzr, [sp, #288]                 ; 8-byte Folded Spill
LBB2_119:
	ldp	x8, x9, [sp, #208]              ; 16-byte Folded Reload
	str	x10, [sp, #96]                  ; 8-byte Folded Spill
	add	x25, x8, x10
	sub	x28, x20, x9
	cmp	x22, x9
	b.hs	LBB2_129
; %bb.120:
	mov	x26, x23
	ldr	x1, [x23]
	mov	x0, x24
	ldr	x8, [sp, #328]                  ; 8-byte Folded Reload
	ldr	x2, [x26, #8]!
	blr	x8
	and	w8, w0, #0xff
	cmp	w8, #1
	cset	w8, eq
	str	x8, [sp, #280]                  ; 8-byte Folded Spill
	cmp	x22, x28
	b.lo	LBB2_130
LBB2_121:
	mov	x1, xzr
	b	LBB2_131
LBB2_122:
	mov	x9, xzr
	ldr	x20, [sp, #128]                 ; 8-byte Folded Reload
LBB2_123:
	ldr	x8, [sp, #184]                  ; 8-byte Folded Reload
	str	x19, [sp, #144]                 ; 8-byte Folded Spill
	str	x9, [sp, #288]                  ; 8-byte Folded Spill
	cmp	x8, x19
	b.hs	LBB2_139
; %bb.124:
	mov	x0, x24
	mov	w1, #1
	blr	x26
	mov	x19, x21
	ldr	x1, [x21]
	mov	x0, x24
	ldr	x8, [sp, #328]                  ; 8-byte Folded Reload
	ldr	x2, [x19, #8]!
	blr	x8
	and	w8, w0, #0xff
	mov	x21, x19
	cmp	w8, #1
	cset	w1, eq
	cmp	x27, #133
	b.hs	LBB2_140
LBB2_125:
	mov	x23, xzr
	mov	w12, wzr
	mov	w13, wzr
	mov	x17, x27
	ldr	x4, [sp, #208]                  ; 8-byte Folded Reload
	str	wzr, [sp, #272]                 ; 4-byte Folded Spill
	str	wzr, [sp, #256]                 ; 4-byte Folded Spill
LBB2_126:                               ; %._crit_edge.i.i91
	cmp	x17, #7
	str	w12, [sp, #232]                 ; 4-byte Folded Spill
	str	w13, [sp, #280]                 ; 4-byte Folded Spill
	b.ls	LBB2_147
; %bb.127:                              ; %.lr.ph134.preheader.i.i
	and	x8, x17, #0xfc
	mov	x19, x1
	sub	x1, x8, #4
	mov	x0, x24
	mov	x28, x25
	mov	x25, x20
	mov	x22, x17
	mov	x27, x4
	blr	x26
	mov	x9, x27
	mov	x27, x28
	str	x28, [sp, #344]                 ; 8-byte Folded Spill
	mov	x1, x19
	ldp	x28, x24, [sp, #288]            ; 16-byte Folded Reload
	mov	x26, x9
	mov	x19, x21
LBB2_128:                               ; %.lr.ph134.i.i
                                        ; =>This Inner Loop Header: Depth=1
	str	x25, [sp, #320]                 ; 8-byte Folded Spill
	ldr	x25, [sp, #360]                 ; 8-byte Folded Reload
	str	x21, [sp, #336]                 ; 8-byte Folded Spill
	ldr	x21, [sp, #328]                 ; 8-byte Folded Reload
	str	x1, [sp, #304]                  ; 8-byte Folded Spill
	ldr	x1, [x9]
	ldr	x2, [x26, #8]!
	mov	x0, x25
	blr	x21
	ldr	x1, [x27]
	and	w8, w0, #0xff
	ldr	x27, [sp, #344]                 ; 8-byte Folded Reload
	mov	x0, x25
	cmp	w8, #1
	cinc	x23, x23, eq
	ldr	x2, [x27, #8]!
	blr	x21
	ldr	x8, [sp, #320]                  ; 8-byte Folded Reload
	ldr	x2, [x20, #8]!
	ldr	x1, [x8]
	and	w8, w0, #0xff
	mov	x0, x25
	cmp	w8, #1
	cinc	x24, x24, eq
	blr	x21
	ldr	x8, [sp, #336]                  ; 8-byte Folded Reload
	ldr	x2, [x19, #8]!
	ldr	x1, [x8]
	and	w8, w0, #0xff
	mov	x0, x25
	cmp	w8, #1
	cinc	x28, x28, eq
	blr	x21
	ldr	x1, [sp, #304]                  ; 8-byte Folded Reload
	and	w8, w0, #0xff
	cmp	w8, #1
	sub	x22, x22, #4
	mov	x9, x26
	mov	x25, x20
	cinc	x1, x1, eq
	mov	x21, x19
	cmp	x22, #7
	str	x27, [sp, #344]                 ; 8-byte Folded Spill
	b.hi	LBB2_128
	b	LBB2_148
LBB2_129:
	mov	x26, x23
	str	xzr, [sp, #280]                 ; 8-byte Folded Spill
	cmp	x22, x28
	b.hs	LBB2_121
LBB2_130:
	mov	x19, x25
	ldr	x1, [x25]
	mov	x0, x24
	ldr	x8, [sp, #328]                  ; 8-byte Folded Reload
	ldr	x2, [x19, #8]!
	blr	x8
	and	w8, w0, #0xff
	mov	x25, x19
	cmp	w8, #1
	cset	w1, eq
LBB2_131:
	ldr	x8, [sp, #208]                  ; 8-byte Folded Reload
	mov	x0, x26
	cmp	x27, #133
	stp	x28, x21, [sp, #176]            ; 16-byte Folded Spill
	str	x23, [sp, #120]                 ; 8-byte Folded Spill
	stp	x20, x22, [sp, #144]            ; 16-byte Folded Spill
	b.lo	LBB2_157
; %bb.132:                              ; %.preheader89.i.i.preheader
	mov	w13, wzr
	mov	w14, wzr
	mov	x15, xzr
	mov	x6, x8
	ldr	x5, [sp, #344]                  ; 8-byte Folded Reload
	mov	x4, x0
	mov	x3, x25
	mov	x2, x27
	ldr	x21, [sp, #360]                 ; 8-byte Folded Reload
	str	wzr, [sp, #232]                 ; 4-byte Folded Spill
	str	wzr, [sp, #248]                 ; 4-byte Folded Spill
	b	LBB2_134
LBB2_133:                               ; %.critedge.i.i204
                                        ;   in Loop: Header=BB2_134 Depth=1
	sub	x2, x2, #128
	mov	x6, x8
	mov	x5, x22
	mov	x4, x0
	mov	x3, x25
	cmp	x2, #132
	stp	x16, x17, [sp, #280]            ; 16-byte Folded Spill
	b.ls	LBB2_158
LBB2_134:                               ; %.preheader89.i.i
                                        ; =>This Loop Header: Depth=1
                                        ;     Child Loop BB2_135 Depth 2
	mov	x28, xzr
	mov	w24, wzr
	mov	w19, wzr
	mov	w26, wzr
	mov	w23, wzr
	ldr	x25, [sp, #328]                 ; 8-byte Folded Reload
	stp	x2, x1, [sp, #296]              ; 16-byte Folded Spill
	str	x15, [sp, #224]                 ; 8-byte Folded Spill
	str	w13, [sp, #256]                 ; 4-byte Folded Spill
	str	w14, [sp, #272]                 ; 4-byte Folded Spill
	stp	x4, x3, [sp, #336]              ; 16-byte Folded Spill
	stp	x6, x5, [sp, #312]              ; 16-byte Folded Spill
LBB2_135:                               ;   Parent Loop BB2_134 Depth=1
                                        ; =>  This Inner Loop Header: Depth=2
	add	x8, x6, x28
	mov	x0, x21
	add	x20, x5, x28
	add	x27, x4, x28
	add	x22, x3, x28
	ldp	x1, x2, [x8]
	blr	x25
	ldp	x1, x2, [x20]
	and	w8, w0, #0xff
	mov	x0, x21
	cmp	w8, #1
	cinc	w24, w24, eq
	blr	x25
	ldp	x1, x2, [x27]
	and	w8, w0, #0xff
	mov	x0, x21
	cmp	w8, #1
	cinc	w19, w19, eq
	blr	x25
	ldp	x1, x2, [x22]
	and	w8, w0, #0xff
	mov	x0, x21
	cmp	w8, #1
	cinc	w26, w26, eq
	blr	x25
	ldp	x6, x5, [sp, #312]              ; 16-byte Folded Reload
	and	w8, w0, #0xff
	add	x28, x28, #8
	ldp	x4, x3, [sp, #336]              ; 16-byte Folded Reload
	cmp	w8, #1
	cinc	w23, w23, eq
	cmp	x28, #256
	b.ne	LBB2_135
; %bb.136:                              ;   in Loop: Header=BB2_134 Depth=1
	ldr	w10, [sp, #232]                 ; 4-byte Folded Reload
	mov	w8, #223
	ldp	x16, x17, [sp, #280]            ; 16-byte Folded Reload
	tst	w24, w8
	add	x22, x5, x28
	ldr	w9, [sp, #248]                  ; 4-byte Folded Reload
	cinc	w10, w10, eq
	ldp	x2, x1, [sp, #296]              ; 16-byte Folded Reload
	tst	w19, w8
	add	x16, x16, w26, uxtb
	ldr	w13, [sp, #256]                 ; 4-byte Folded Reload
	cinc	w9, w9, eq
	ldr	x15, [sp, #224]                 ; 8-byte Folded Reload
	tst	w26, w8
	ldr	w14, [sp, #272]                 ; 4-byte Folded Reload
	add	x17, x17, w19, uxtb
	cinc	w13, w13, eq
	tst	w23, w8
	add	x15, x15, w24, uxtb
	add	x1, x1, w23, uxtb
	cinc	w14, w14, eq
	add	x8, x6, x28
	add	x25, x3, x28
	add	x0, x4, x28
	cmp	x2, #516
	str	w9, [sp, #248]                  ; 4-byte Folded Spill
	str	w10, [sp, #232]                 ; 4-byte Folded Spill
	b.ls	LBB2_133
; %bb.137:                              ;   in Loop: Header=BB2_134 Depth=1
	and	w9, w24, #0xffffffdf
	and	w12, w23, #0xffffffdf
	tst	w9, #0xff
	and	w10, w19, #0xffffffdf
	cset	w9, eq
	tst	w12, #0xff
	and	w11, w26, #0xffffffdf
	csetm	w12, eq
	tst	w10, #0xff
	cinc	w9, w9, eq
	tst	w11, #0xff
	cinc	w9, w9, eq
	cmp	w9, w12
	b.ne	LBB2_133
; %bb.138:                              ;   in Loop: Header=BB2_134 Depth=1
	add	x9, x5, x28
	add	x8, x6, x28
	add	x22, x9, #768
	add	x9, x4, x28
	add	x0, x9, #768
	add	x9, x3, x28
	add	x15, x15, #48
	add	x17, x17, #48
	add	x8, x8, #768
	add	x16, x16, #48
	add	x1, x1, #48
	add	x25, x9, #768
	sub	x2, x2, #384
	b	LBB2_133
LBB2_139:
	mov	x1, xzr
	cmp	x27, #133
	b.lo	LBB2_125
LBB2_140:                               ; %.lr.ph.i.i77.preheader
	mov	w13, wzr
	mov	w12, wzr
	mov	x23, xzr
	ldr	x10, [sp, #208]                 ; 8-byte Folded Reload
	mov	x9, x25
	mov	x8, x20
	mov	x22, x21
	mov	x17, x27
	str	wzr, [sp, #256]                 ; 4-byte Folded Spill
	str	wzr, [sp, #272]                 ; 4-byte Folded Spill
	b	LBB2_142
LBB2_141:                               ;   in Loop: Header=BB2_142 Depth=1
	ldr	x24, [sp, #360]                 ; 8-byte Folded Reload
	sub	x17, x17, #128
	ldr	x26, [sp, #248]                 ; 8-byte Folded Reload
	mov	x10, x4
	mov	x9, x25
	mov	x8, x20
	mov	x22, x21
	cmp	x17, #132
	stp	x16, x15, [sp, #288]            ; 16-byte Folded Spill
	b.ls	LBB2_126
LBB2_142:                               ; %.lr.ph.i.i77
                                        ; =>This Loop Header: Depth=1
                                        ;     Child Loop BB2_143 Depth 2
	str	x1, [sp, #304]                  ; 8-byte Folded Spill
	mov	x0, x24
	mov	w1, #128
	stp	x10, x9, [sp, #312]             ; 16-byte Folded Spill
	str	x8, [sp, #336]                  ; 8-byte Folded Spill
	stp	x17, x23, [sp, #216]            ; 16-byte Folded Spill
	str	w13, [sp, #280]                 ; 4-byte Folded Spill
	str	w12, [sp, #232]                 ; 4-byte Folded Spill
	blr	x26
	mov	x19, xzr
	mov	w24, wzr
	mov	w26, wzr
	mov	w27, wzr
	mov	w5, wzr
LBB2_143:                               ;   Parent Loop BB2_142 Depth=1
                                        ; =>  This Inner Loop Header: Depth=2
	ldp	x8, x9, [sp, #312]              ; 16-byte Folded Reload
	str	x5, [sp, #344]                  ; 8-byte Folded Spill
	mov	x21, x22
	ldr	x25, [sp, #360]                 ; 8-byte Folded Reload
	add	x22, x22, x19
	add	x8, x8, x19
	add	x20, x9, x19
	mov	x0, x25
	ldp	x23, x9, [sp, #328]             ; 16-byte Folded Reload
	ldp	x1, x2, [x8]
	add	x28, x9, x19
	blr	x23
	ldp	x1, x2, [x20]
	and	w8, w0, #0xff
	mov	x0, x25
	cmp	w8, #1
	cinc	w24, w24, eq
	blr	x23
	ldp	x1, x2, [x28]
	and	w8, w0, #0xff
	mov	x0, x25
	cmp	w8, #1
	cinc	w26, w26, eq
	blr	x23
	ldp	x1, x2, [x22]
	and	w8, w0, #0xff
	mov	x0, x25
	cmp	w8, #1
	mov	x22, x21
	cinc	w27, w27, eq
	blr	x23
	ldr	x5, [sp, #344]                  ; 8-byte Folded Reload
	and	w8, w0, #0xff
	cmp	w8, #1
	add	x19, x19, #8
	cinc	w5, w5, eq
	cmp	x19, #256
	b.ne	LBB2_143
; %bb.144:                              ;   in Loop: Header=BB2_142 Depth=1
	ldr	w9, [sp, #256]                  ; 4-byte Folded Reload
	mov	w10, #223
	ldp	x16, x15, [sp, #288]            ; 16-byte Folded Reload
	tst	w24, w10
	add	x21, x22, x19
	ldr	w8, [sp, #272]                  ; 4-byte Folded Reload
	cinc	w9, w9, eq
	ldp	x1, x3, [sp, #304]              ; 16-byte Folded Reload
	tst	w26, w10
	add	x16, x16, w27, uxtb
	ldr	w13, [sp, #280]                 ; 4-byte Folded Reload
	cinc	w8, w8, eq
	ldr	x23, [sp, #224]                 ; 8-byte Folded Reload
	tst	w27, w10
	ldr	w12, [sp, #232]                 ; 4-byte Folded Reload
	add	x15, x15, w26, uxtb
	ldr	x2, [sp, #320]                  ; 8-byte Folded Reload
	cinc	w13, w13, eq
	ldr	x0, [sp, #336]                  ; 8-byte Folded Reload
	tst	w5, w10
	ldr	x17, [sp, #216]                 ; 8-byte Folded Reload
	add	x23, x23, w24, uxtb
	add	x1, x1, w5, uxtb
	cinc	w12, w12, eq
	add	x4, x3, x19
	add	x25, x2, x19
	add	x20, x0, x19
	cmp	x17, #516
	str	w8, [sp, #272]                  ; 4-byte Folded Spill
	str	w9, [sp, #256]                  ; 4-byte Folded Spill
	b.ls	LBB2_141
; %bb.145:                              ;   in Loop: Header=BB2_142 Depth=1
	mov	x11, x26
	and	w8, w24, #0xffffffdf
	and	w9, w11, #0xffffffdf
	and	w11, w5, #0xffffffdf
	tst	w8, #0xff
	and	w10, w27, #0xffffffdf
	cset	w8, eq
	tst	w11, #0xff
	csetm	w11, eq
	tst	w9, #0xff
	cinc	w8, w8, eq
	tst	w10, #0xff
	cinc	w8, w8, eq
	cmp	w8, w11
	b.ne	LBB2_141
; %bb.146:                              ;   in Loop: Header=BB2_142 Depth=1
	add	x8, x3, x19
	add	x23, x23, #48
	add	x4, x8, #768
	add	x8, x2, x19
	add	x25, x8, #768
	add	x8, x0, x19
	add	x20, x8, #768
	add	x8, x22, x19
	add	x15, x15, #48
	add	x16, x16, #48
	add	x1, x1, #48
	add	x21, x8, #768
	sub	x17, x17, #384
	b	LBB2_141
LBB2_147:
	ldp	x28, x24, [sp, #288]            ; 16-byte Folded Reload
	mov	x19, x21
	str	x25, [sp, #344]                 ; 8-byte Folded Spill
	mov	x26, x4
LBB2_148:                               ; %._crit_edge135.i.i
	add	x8, x28, x23
	ldr	x22, [sp, #248]                 ; 8-byte Folded Reload
	mov	x30, x23
	mov	x4, x24
	ldr	x27, [sp, #168]                 ; 8-byte Folded Reload
	mov	x17, x28
	ldr	x28, [sp, #352]                 ; 8-byte Folded Reload
	mov	x21, x26
	add	x8, x24, x8
	str	x19, [sp, #312]                 ; 8-byte Folded Spill
	cmn	x8, x1
	b.ne	LBB2_152
; %bb.149:
	ldr	x25, [sp, #360]                 ; 8-byte Folded Reload
	mov	x19, x1
	mov	w1, #1
	mov	x26, x17
	mov	x23, x30
	mov	x24, x4
	mov	x0, x25
	blr	x22
	ldp	x1, x2, [x21]
	mov	x0, x25
	ldr	x8, [sp, #328]                  ; 8-byte Folded Reload
	ldr	x27, [sp, #168]                 ; 8-byte Folded Reload
	blr	x8
	mov	x4, x24
	mov	x30, x23
	mov	x1, x19
	mov	x17, x26
	and	w8, w0, #0xff
	cmp	w8, #1
	b.eq	LBB2_152
; %bb.150:
	ldr	x25, [sp, #360]                 ; 8-byte Folded Reload
	mov	w1, #1
	mov	x0, x25
	blr	x22
	ldr	x8, [sp, #344]                  ; 8-byte Folded Reload
	mov	x0, x25
	ldr	x27, [sp, #168]                 ; 8-byte Folded Reload
	ldp	x1, x2, [x8]
	ldr	x8, [sp, #328]                  ; 8-byte Folded Reload
	blr	x8
	mov	x4, x24
	mov	x30, x23
	mov	x1, x19
	mov	x17, x26
	and	w8, w0, #0xff
	cmp	w8, #1
	b.eq	LBB2_152
; %bb.151:
	ldr	x25, [sp, #360]                 ; 8-byte Folded Reload
	mov	w1, #1
	mov	x0, x25
	blr	x22
	ldp	x1, x2, [x20]
	mov	x0, x25
	ldr	x8, [sp, #328]                  ; 8-byte Folded Reload
	ldr	x27, [sp, #168]                 ; 8-byte Folded Reload
	blr	x8
	mov	x4, x24
	mov	x30, x23
	mov	x1, x19
	mov	x17, x26
	and	w8, w0, #0xff
	cmp	w8, #1
	b.ne	LBB2_1241
LBB2_152:                               ; %.critedge2.i.i115
	ldr	x8, [sp, #184]                  ; 8-byte Folded Reload
	str	x20, [sp, #336]                 ; 8-byte Folded Spill
	str	x21, [sp, #320]                 ; 8-byte Folded Spill
	sub	x10, x8, x30
	ldr	x8, [sp, #136]                  ; 8-byte Folded Reload
	cmp	x10, #1
	sub	x20, x8, x4
	ldr	x8, [sp, #176]                  ; 8-byte Folded Reload
	sub	x9, x8, x17
	ldr	x8, [sp, #144]                  ; 8-byte Folded Reload
	sub	x23, x8, x1
	b.eq	LBB2_174
; %bb.153:                              ; %.critedge2.i.i115
	cmp	x20, #1
	b.eq	LBB2_174
; %bb.154:                              ; %.critedge2.i.i115
	cmp	x9, #1
	b.eq	LBB2_174
; %bb.155:                              ; %.critedge2.i.i115
	cmp	x23, #1
	b.eq	LBB2_174
; %bb.156:
	ldr	w5, [sp, #232]                  ; 4-byte Folded Reload
	ldr	w6, [sp, #280]                  ; 4-byte Folded Reload
	ldr	x26, [sp, #328]                 ; 8-byte Folded Reload
	ldr	x24, [sp, #360]                 ; 8-byte Folded Reload
	b	LBB2_1152
LBB2_157:
	mov	x15, xzr
	mov	w14, wzr
	mov	w13, wzr
	mov	x2, x27
	ldr	x22, [sp, #344]                 ; 8-byte Folded Reload
	str	wzr, [sp, #248]                 ; 4-byte Folded Spill
	str	wzr, [sp, #232]                 ; 4-byte Folded Spill
LBB2_158:                               ; %.preheader.i.i192
	cmp	x2, #8
	str	w13, [sp, #256]                 ; 4-byte Folded Spill
	str	w14, [sp, #272]                 ; 4-byte Folded Spill
	b.lo	LBB2_161
; %bb.159:
	mov	x24, x25
	mov	x19, x25
	ldp	x25, x28, [sp, #280]            ; 16-byte Folded Reload
	mov	x21, x8
	mov	x26, x15
	ldr	x20, [sp, #360]                 ; 8-byte Folded Reload
	stp	x22, x0, [sp, #336]             ; 16-byte Folded Spill
	ldr	x23, [sp, #328]                 ; 8-byte Folded Reload
LBB2_160:                               ; %.lr.ph.i.i208
                                        ; =>This Inner Loop Header: Depth=1
	stp	x2, x1, [sp, #296]              ; 16-byte Folded Spill
	ldr	x1, [x8]
	ldr	x2, [x21, #8]!
	mov	x27, x0
	mov	x0, x20
	blr	x23
	ldr	x1, [x22]
	and	w8, w0, #0xff
	ldr	x22, [sp, #336]                 ; 8-byte Folded Reload
	mov	x0, x20
	cmp	w8, #1
	cinc	x26, x26, eq
	ldr	x2, [x22, #8]!
	blr	x23
	ldr	x1, [x27]
	and	w8, w0, #0xff
	ldr	x27, [sp, #344]                 ; 8-byte Folded Reload
	mov	x0, x20
	cmp	w8, #1
	cinc	x28, x28, eq
	ldr	x2, [x27, #8]!
	blr	x23
	ldr	x1, [x19]
	and	w8, w0, #0xff
	ldr	x2, [x24, #8]!
	mov	x0, x20
	cmp	w8, #1
	cinc	x25, x25, eq
	blr	x23
	ldp	x2, x1, [sp, #296]              ; 16-byte Folded Reload
	and	w9, w0, #0xff
	mov	x8, x21
	cmp	w9, #1
	mov	x0, x27
	mov	x19, x24
	stp	x22, x27, [sp, #336]            ; 16-byte Folded Spill
	sub	x2, x2, #4
	cinc	x1, x1, eq
	cmp	x2, #7
	b.hi	LBB2_160
	b	LBB2_162
LBB2_161:
	mov	x24, x25
	stp	x22, x0, [sp, #336]             ; 16-byte Folded Spill
	ldp	x25, x28, [sp, #280]            ; 16-byte Folded Reload
	mov	x21, x8
	mov	x26, x15
LBB2_162:                               ; %._crit_edge.i.i217
	add	x8, x25, x26
	ldr	x27, [sp, #168]                 ; 8-byte Folded Reload
	add	x8, x28, x8
	cmn	x8, x1
	b.ne	LBB2_166
; %bb.163:
	mov	x19, x1
	ldr	x0, [sp, #360]                  ; 8-byte Folded Reload
	ldp	x1, x2, [x21]
	ldr	x8, [sp, #328]                  ; 8-byte Folded Reload
	blr	x8
	mov	x1, x19
	and	w8, w0, #0xff
	cmp	w8, #1
	b.eq	LBB2_166
; %bb.164:
	ldr	x8, [sp, #336]                  ; 8-byte Folded Reload
	ldr	x0, [sp, #360]                  ; 8-byte Folded Reload
	ldp	x1, x2, [x8]
	ldr	x8, [sp, #328]                  ; 8-byte Folded Reload
	blr	x8
	mov	x1, x19
	and	w8, w0, #0xff
	cmp	w8, #1
	b.eq	LBB2_166
; %bb.165:
	ldr	x8, [sp, #344]                  ; 8-byte Folded Reload
	ldr	x0, [sp, #360]                  ; 8-byte Folded Reload
	ldp	x1, x2, [x8]
	ldr	x8, [sp, #328]                  ; 8-byte Folded Reload
	blr	x8
	mov	x1, x19
	and	w8, w0, #0xff
	cmp	w8, #1
	b.ne	LBB2_1049
LBB2_166:                               ; %.critedge2.i.i221
	ldr	x8, [sp, #152]                  ; 8-byte Folded Reload
	str	x21, [sp, #320]                 ; 8-byte Folded Spill
	sub	x11, x8, x26
	ldr	x8, [sp, #184]                  ; 8-byte Folded Reload
	cmp	x11, #1
	sub	x12, x8, x28
	ldr	x8, [sp, #216]                  ; 8-byte Folded Reload
	sub	x10, x8, x25
	ldr	x8, [sp, #176]                  ; 8-byte Folded Reload
	sub	x19, x8, x1
	b.eq	LBB2_179
; %bb.167:                              ; %.critedge2.i.i221
	cmp	x12, #1
	b.eq	LBB2_179
; %bb.168:                              ; %.critedge2.i.i221
	cmp	x10, #1
	b.eq	LBB2_179
; %bb.169:                              ; %.critedge2.i.i221
	cmp	x19, #1
	b.eq	LBB2_179
; %bb.170:
	mov	x23, x28
	ldr	w5, [sp, #256]                  ; 4-byte Folded Reload
	ldr	w7, [sp, #272]                  ; 4-byte Folded Reload
	b	LBB2_961
LBB2_171:
	add	x2, x22, x28
	mov	x0, x24
	mov	x1, x22
	ldr	x26, [sp, #328]                 ; 8-byte Folded Reload
	cmp	x12, #1
	str	x19, [sp, #232]                 ; 8-byte Folded Spill
	cset	w8, eq
	cmp	x10, #1
	str	x20, [sp, #256]                 ; 8-byte Folded Spill
	cset	w19, eq
	stp	x12, x10, [sp, #40]             ; 16-byte Folded Spill
	csel	w20, wzr, w8, ne
	mov	x27, x28
	str	x2, [sp, #288]                  ; 8-byte Folded Spill
	mov	x22, x11
	blr	x26
	add	x2, x22, x28
	and	w8, w0, #0xff
	mov	x0, x24
	mov	x1, x22
	cmp	w8, #1
	str	x21, [sp, #176]                 ; 8-byte Folded Spill
	csel	w20, wzr, w20, ne
	cmp	x21, #1
	cset	w21, eq
	csel	w19, wzr, w19, ne
	str	x2, [sp, #296]                  ; 8-byte Folded Spill
	blr	x26
	ldr	x1, [sp, #344]                  ; 8-byte Folded Reload
	and	w8, w0, #0xff
	mov	x0, x24
	cmp	w8, #1
	cset	w22, eq
	cmp	x25, #1
	add	x2, x1, x28
	str	x25, [sp, #248]                 ; 8-byte Folded Spill
	csel	w21, wzr, w21, ne
	str	x2, [sp, #336]                  ; 8-byte Folded Spill
	blr	x26
	and	w9, w0, #0xff
	mov	w8, #2
	cmp	w9, #1
	ldr	x12, [sp, #168]                 ; 8-byte Folded Reload
	cset	w9, eq
	tst	w19, w22
	csel	w8, w8, wzr, ne
	tst	w21, w9
	mov	w9, #4
	orr	w8, w8, w20
	csel	w9, w9, wzr, ne
	orr	w8, w8, w9
Lloh2:
	adrp	x9, LJTI2_4@PAGE
Lloh3:
	add	x9, x9, LJTI2_4@PAGEOFF
	adr	x10, LBB2_172
	ldrh	w11, [x9, x8, lsl #1]
	add	x10, x10, x11, lsl #2
	ldr	x21, [sp, #344]                 ; 8-byte Folded Reload
	ldp	x22, x11, [sp, #304]            ; 16-byte Folded Reload
	ldp	x0, x14, [sp, #224]             ; 16-byte Folded Reload
	ldr	x20, [sp, #256]                 ; 8-byte Folded Reload
	ldr	x13, [sp, #320]                 ; 8-byte Folded Reload
	br	x10
LBB2_172:
	ldr	x10, [sp, #240]                 ; 8-byte Folded Reload
	lsl	x9, x28, #1
	mov	x11, x28
	sub	x8, x13, x10
	udiv	x20, x8, x9
	mul	x8, x20, x28
	add	x19, x10, x8
	sub	x26, x13, x8
	tbnz	w20, #0, LBB2_396
; %bb.173:
	add	x0, sp, #1, lsl #12             ; =4096
	mov	x1, x19
	add	x0, x0, #784
	ldr	x21, [sp, #264]                 ; 8-byte Folded Reload
	blr	x21
	mov	x0, x19
	mov	x1, x26
	blr	x21
	add	x1, sp, #1, lsl #12             ; =4096
	neg	x8, x28
	add	x1, x1, #784
	mov	x0, x26
	sub	x19, x19, x28
	str	x8, [sp, #288]                  ; 8-byte Folded Spill
	blr	x21
	ldr	x10, [sp, #240]                 ; 8-byte Folded Reload
	add	x26, x26, x28
	sub	x20, x20, #1
	b	LBB2_397
LBB2_174:
	ldr	x24, [sp, #360]                 ; 8-byte Folded Reload
	str	x1, [sp, #304]                  ; 8-byte Folded Spill
	mov	w1, #3
	mov	x8, x22
	cmp	x10, #1
	stp	x17, x4, [sp, #288]             ; 16-byte Folded Spill
	mov	x0, x24
	str	x30, [sp, #224]                 ; 8-byte Folded Spill
	str	x10, [sp, #56]                  ; 8-byte Folded Spill
	cset	w19, eq
	mov	x22, x9
	blr	x8
	mov	x8, x21
	ldr	x1, [x21]
	mov	x0, x24
	ldr	x26, [sp, #328]                 ; 8-byte Folded Reload
	cmp	x20, #1
	str	x20, [sp, #72]                  ; 8-byte Folded Spill
	ldr	x2, [x8, #8]!
	cset	w20, eq
	csel	w19, wzr, w19, ne
	str	x8, [sp, #40]                   ; 8-byte Folded Spill
	blr	x26
	ldr	x9, [sp, #344]                  ; 8-byte Folded Reload
	and	w8, w0, #0xff
	mov	x0, x24
	cmp	w8, #1
	csel	w19, wzr, w19, ne
	cmp	x22, #1
	ldr	x1, [x9]
	str	x22, [sp, #80]                  ; 8-byte Folded Spill
	ldr	x2, [x9, #8]!
	cset	w21, eq
	csel	w20, wzr, w20, ne
	str	x9, [sp, #48]                   ; 8-byte Folded Spill
	blr	x26
	ldr	x9, [sp, #336]                  ; 8-byte Folded Reload
	and	w8, w0, #0xff
	mov	x0, x24
	cmp	w8, #1
	cset	w22, eq
	cmp	x23, #1
	mov	x10, x9
	ldr	x1, [x9]
	str	x23, [sp, #216]                 ; 8-byte Folded Spill
	csel	w21, wzr, w21, ne
	mov	x23, x24
	ldr	x2, [x10, #8]!
	str	x10, [sp, #64]                  ; 8-byte Folded Spill
	blr	x26
	and	w9, w0, #0xff
	mov	w8, #2
	cmp	w9, #1
	cset	w9, eq
	tst	w20, w22
	csel	w8, w8, wzr, ne
	tst	w21, w9
	mov	w9, #4
	orr	w8, w8, w19
	csel	w9, w9, wzr, ne
	orr	w8, w8, w9
Lloh4:
	adrp	x9, LJTI2_2@PAGE
Lloh5:
	add	x9, x9, LJTI2_2@PAGEOFF
	adr	x10, LBB2_175
	ldrh	w11, [x9, x8, lsl #1]
	add	x10, x10, x11, lsl #2
	ldr	x22, [sp, #248]                 ; 8-byte Folded Reload
	ldp	x26, x5, [sp, #328]             ; 16-byte Folded Reload
	ldp	x7, x6, [sp, #312]              ; 16-byte Folded Reload
	ldp	x4, x1, [sp, #296]              ; 16-byte Folded Reload
	ldr	x30, [sp, #224]                 ; 8-byte Folded Reload
	ldr	x17, [sp, #288]                 ; 8-byte Folded Reload
	br	x10
LBB2_175:
	ldr	x10, [sp, #208]                 ; 8-byte Folded Reload
	ldr	x12, [sp, #344]                 ; 8-byte Folded Reload
	sub	x11, x12, x10
	lsr	x8, x11, #4
	lsl	x9, x8, #3
	add	x10, x10, x9
	sub	x9, x12, x9
	tbnz	w11, #4, LBB2_177
; %bb.176:
	ldr	x11, [x9]
	sub	x8, x8, #1
	ldr	x12, [x10]
	str	x11, [x10], #-8
	str	x12, [x9], #8
LBB2_177:
	ldr	x14, [sp, #344]                 ; 8-byte Folded Reload
	cmp	x8, #2
	ldr	x13, [sp, #208]                 ; 8-byte Folded Reload
	ldr	w6, [sp, #280]                  ; 4-byte Folded Reload
	ldr	x11, [x14]
	ldr	x12, [x13]
	str	x11, [x13]
	str	x12, [x14]
	ldr	x11, [x9]
	ldr	x12, [x10]
	str	x11, [x10]
	str	x12, [x9]
	b.hs	LBB2_652
LBB2_178:
	mov	x30, xzr
	mov	x4, xzr
	mov	x24, x23
	b	LBB2_1106
LBB2_179:
	str	x28, [sp, #288]                 ; 8-byte Folded Spill
	mov	x28, x11
	cmp	x11, #1
	mov	x11, x21
	ldr	x23, [sp, #360]                 ; 8-byte Folded Reload
	stp	x1, x24, [sp, #304]             ; 16-byte Folded Spill
	ldr	x1, [x21]
	cset	w8, eq
	ldr	x2, [x11, #8]!
	mov	x0, x23
	ldr	x24, [sp, #328]                 ; 8-byte Folded Reload
	cmp	x12, #1
	str	x12, [sp, #80]                  ; 8-byte Folded Spill
	cset	w22, eq
	csel	w20, wzr, w8, ne
	str	x11, [sp, #224]                 ; 8-byte Folded Spill
	mov	x21, x10
	blr	x24
	ldr	x9, [sp, #336]                  ; 8-byte Folded Reload
	and	w8, w0, #0xff
	cmp	w8, #1
	mov	x0, x23
	csel	w27, wzr, w20, ne
	cmp	x21, #1
	mov	x20, x9
	ldr	x1, [x9]
	csel	w8, wzr, w22, ne
	str	x21, [sp, #88]                  ; 8-byte Folded Spill
	cset	w21, eq
	ldr	x2, [x20, #8]!
	str	w8, [sp, #296]                  ; 4-byte Folded Spill
	blr	x24
	ldr	x10, [sp, #344]                 ; 8-byte Folded Reload
	and	w8, w0, #0xff
	mov	x0, x23
	cmp	w8, #1
	cset	w22, eq
	cmp	x19, #1
	mov	x9, x10
	ldr	x1, [x10]
	str	x19, [sp, #280]                 ; 8-byte Folded Spill
	csel	w21, wzr, w21, ne
	ldr	x2, [x9, #8]!
	str	x9, [sp, #72]                   ; 8-byte Folded Spill
	blr	x24
	ldr	w10, [sp, #296]                 ; 4-byte Folded Reload
	and	w9, w0, #0xff
	cmp	w9, #1
	mov	w8, #2
	cset	w9, eq
	tst	w10, w22
	csel	w8, w8, wzr, ne
	tst	w21, w9
	mov	w9, #4
	orr	w8, w8, w27
	csel	w9, w9, wzr, ne
	orr	w8, w8, w9
Lloh6:
	adrp	x9, LJTI2_0@PAGE
Lloh7:
	add	x9, x9, LJTI2_0@PAGEOFF
	adr	x10, LBB2_180
	ldrh	w11, [x9, x8, lsl #1]
	add	x10, x10, x11, lsl #2
	ldr	w7, [sp, #272]                  ; 4-byte Folded Reload
	ldp	x6, x5, [sp, #312]              ; 16-byte Folded Reload
	ldr	x1, [sp, #304]                  ; 8-byte Folded Reload
	ldr	x27, [sp, #168]                 ; 8-byte Folded Reload
	br	x10
LBB2_180:
	ldr	x10, [sp, #208]                 ; 8-byte Folded Reload
	ldr	x12, [sp, #336]                 ; 8-byte Folded Reload
	sub	x11, x12, x10
	lsr	x8, x11, #4
	lsl	x9, x8, #3
	add	x10, x10, x9
	sub	x9, x12, x9
	tbnz	w11, #4, LBB2_182
; %bb.181:
	ldr	x11, [x9]
	sub	x8, x8, #1
	ldr	x12, [x10]
	str	x11, [x10], #-8
	str	x12, [x9], #8
LBB2_182:
	ldr	x14, [sp, #336]                 ; 8-byte Folded Reload
	cmp	x8, #2
	ldr	x13, [sp, #208]                 ; 8-byte Folded Reload
	ldr	w5, [sp, #256]                  ; 4-byte Folded Reload
	ldr	x11, [x14]
	ldr	x12, [x13]
	str	x11, [x13]
	str	x12, [x14]
	ldr	x11, [x9]
	ldr	x12, [x10]
	str	x11, [x10]
	str	x12, [x9]
	b.lo	LBB2_737
; %bb.183:                              ; %.lr.ph188.preheader.i.i
	lsr	x11, x8, #1
	cmp	x8, #48
	b.lo	LBB2_733
; %bb.184:                              ; %vector.scevcheck1200
	ldr	x13, [sp, #336]                 ; 8-byte Folded Reload
	sub	x12, x11, #1
	sub	x14, x13, #8
	lsl	x13, x12, #3
	sub	x15, x14, x13
	cmp	x15, x14
	b.hi	LBB2_733
; %bb.185:                              ; %vector.scevcheck1200
	sub	x14, x10, #8
	sub	x13, x14, x13
	cmp	x13, x14
	b.hi	LBB2_733
; %bb.186:                              ; %vector.scevcheck1200
	lsr	x12, x12, #61
	cbnz	x12, LBB2_733
; %bb.187:                              ; %vector.memcheck1209
	ldr	x14, [sp, #208]                 ; 8-byte Folded Reload
	lsl	x12, x11, #3
	ldr	x4, [sp, #336]                  ; 8-byte Folded Reload
	add	x13, x12, #8
	sub	x1, x10, x12
	add	x2, x9, #8
	add	x17, x14, #8
	add	x0, x14, x13
	sub	x16, x4, x12
	cmp	x17, x4
	ccmp	x16, x0, #2, lo
	add	x3, x9, x13
	cset	w12, lo
	cmp	x17, x10
	ccmp	x1, x0, #2, lo
	cset	w13, lo
	cmp	x2, x4
	ccmp	x16, x3, #2, lo
	cset	w14, lo
	cmp	x2, x10
	ccmp	x1, x3, #2, lo
	cset	w15, lo
	cmp	x16, x10
	ccmp	x1, x4, #2, lo
	cset	w16, lo
	cmp	x2, x0
	ccmp	x17, x3, #2, lo
	b.lo	LBB2_948
; %bb.188:                              ; %vector.memcheck1209
	tbnz	w12, #0, LBB2_948
; %bb.189:                              ; %vector.memcheck1209
	tbnz	w13, #0, LBB2_948
; %bb.190:                              ; %vector.memcheck1209
	tbnz	w14, #0, LBB2_948
; %bb.191:                              ; %vector.memcheck1209
	tbnz	w15, #0, LBB2_948
; %bb.192:                              ; %vector.memcheck1209
	tbnz	w16, #0, LBB2_948
; %bb.193:                              ; %vector.ph1242
	ldr	x17, [sp, #208]                 ; 8-byte Folded Reload
	and	x16, x11, #0x7ffffffffffffffe
	ldr	x0, [sp, #336]                  ; 8-byte Folded Reload
	lsl	x15, x16, #3
	ubfx	x8, x8, #1, #1
	sub	x13, x10, x15
	add	x12, x17, x15
	add	x14, x9, x15
	sub	x15, x0, x15
	add	x17, x17, #8
	add	x9, x9, #8
	sub	x0, x0, #16
	sub	x10, x10, #16
	neg	x1, x16
LBB2_194:                               ; %vector.body1256
                                        ; =>This Inner Loop Header: Depth=1
	ldr	q0, [x0]
	adds	x1, x1, #2
	ldr	q1, [x17]
	ext.16b	v0, v0, v0, #8
	ext.16b	v1, v1, v1, #8
	str	q0, [x17], #16
	str	q1, [x0], #-16
	ldr	q0, [x9]
	ldr	q1, [x10]
	ext.16b	v0, v0, v0, #8
	ext.16b	v1, v1, v1, #8
	str	q0, [x10], #-16
	str	q1, [x9], #16
	b.ne	LBB2_194
; %bb.195:                              ; %middle.block1239
	ldr	x1, [sp, #304]                  ; 8-byte Folded Reload
	cmp	x11, x16
	b.ne	LBB2_735
	b	LBB2_737
LBB2_196:
	ldr	x8, [sp, #320]                  ; 8-byte Folded Reload
	lsl	x9, x28, #1
	mov	x11, x28
	add	x10, x8, #1
	sub	x8, x21, x10
	udiv	x20, x8, x9
	str	x10, [sp, #280]                 ; 8-byte Folded Spill
	mul	x8, x20, x28
	add	x25, x10, x8
	sub	x19, x21, x8
	tbnz	w20, #0, LBB2_401
; %bb.197:
	add	x0, sp, #1, lsl #12             ; =4096
	mov	x1, x25
	add	x0, x0, #784
	ldr	x23, [sp, #264]                 ; 8-byte Folded Reload
	blr	x23
	mov	x0, x25
	mov	x1, x19
	blr	x23
	add	x1, sp, #1, lsl #12             ; =4096
	neg	x8, x28
	add	x1, x1, #784
	mov	x0, x19
	sub	x25, x25, x28
	str	x8, [sp, #272]                  ; 8-byte Folded Spill
	blr	x23
	add	x19, x19, x28
	sub	x20, x20, #1
	b	LBB2_402
LBB2_198:
	ldr	x10, [sp, #240]                 ; 8-byte Folded Reload
	lsl	x9, x28, #1
	mov	x11, x28
	sub	x8, x21, x10
	udiv	x20, x8, x9
	mul	x8, x20, x28
	add	x26, x10, x8
	sub	x25, x21, x8
	tbnz	w20, #0, LBB2_406
; %bb.199:
	add	x0, sp, #1, lsl #12             ; =4096
	mov	x1, x26
	add	x0, x0, #784
	ldr	x22, [sp, #264]                 ; 8-byte Folded Reload
	blr	x22
	mov	x0, x26
	mov	x1, x25
	blr	x22
	add	x1, sp, #1, lsl #12             ; =4096
	neg	x8, x28
	add	x1, x1, #784
	mov	x0, x25
	sub	x26, x26, x28
	str	x8, [sp, #296]                  ; 8-byte Folded Spill
	blr	x22
	ldr	x10, [sp, #240]                 ; 8-byte Folded Reload
	add	x25, x25, x28
	sub	x20, x20, #1
	b	LBB2_407
LBB2_200:
	ldr	x8, [sp, #344]                  ; 8-byte Folded Reload
	lsl	x9, x28, #1
	mov	x11, x28
	add	x10, x8, #1
	sub	x8, x25, x10
	udiv	x20, x8, x9
	str	x10, [sp, #280]                 ; 8-byte Folded Spill
	mul	x8, x20, x28
	add	x27, x10, x8
	sub	x19, x25, x8
	tbnz	w20, #0, LBB2_411
; %bb.201:
	add	x0, sp, #1, lsl #12             ; =4096
	mov	x1, x27
	add	x0, x0, #784
	ldr	x21, [sp, #264]                 ; 8-byte Folded Reload
	blr	x21
	mov	x0, x27
	mov	x1, x19
	blr	x21
	add	x1, sp, #1, lsl #12             ; =4096
	neg	x8, x28
	add	x1, x1, #784
	mov	x0, x19
	sub	x27, x27, x28
	str	x8, [sp, #272]                  ; 8-byte Folded Spill
	blr	x21
	add	x19, x19, x28
	sub	x20, x20, #1
	b	LBB2_412
LBB2_202:
	ldr	x9, [sp, #240]                  ; 8-byte Folded Reload
	lsl	x11, x28, #1
	ldr	x10, [sp, #344]                 ; 8-byte Folded Reload
	mov	x12, x28
	str	x11, [sp, #296]                 ; 8-byte Folded Spill
	sub	x8, x10, x9
	udiv	x20, x8, x11
	mul	x8, x20, x28
	add	x25, x9, x8
	sub	x19, x10, x8
	tbnz	w20, #0, LBB2_416
; %bb.203:
	add	x0, sp, #1, lsl #12             ; =4096
	mov	x1, x25
	add	x0, x0, #784
	ldr	x21, [sp, #264]                 ; 8-byte Folded Reload
	blr	x21
	mov	x0, x25
	mov	x1, x19
	blr	x21
	add	x1, sp, #1, lsl #12             ; =4096
	neg	x8, x28
	add	x1, x1, #784
	mov	x0, x19
	sub	x25, x25, x28
	str	x8, [sp, #336]                  ; 8-byte Folded Spill
	blr	x21
	ldr	x9, [sp, #240]                  ; 8-byte Folded Reload
	add	x19, x19, x28
	sub	x20, x20, #1
	b	LBB2_417
LBB2_204:
	ldr	x8, [sp, #320]                  ; 8-byte Folded Reload
	lsl	x9, x28, #1
	mov	x11, x28
	add	x10, x8, #1
	sub	x8, x25, x10
	udiv	x20, x8, x9
	str	x10, [sp, #280]                 ; 8-byte Folded Spill
	mul	x8, x20, x28
	add	x27, x10, x8
	sub	x19, x25, x8
	tbnz	w20, #0, LBB2_422
; %bb.205:
	add	x0, sp, #1, lsl #12             ; =4096
	mov	x1, x27
	add	x0, x0, #784
	ldr	x21, [sp, #264]                 ; 8-byte Folded Reload
	blr	x21
	mov	x0, x27
	mov	x1, x19
	blr	x21
	add	x1, sp, #1, lsl #12             ; =4096
	neg	x8, x28
	add	x1, x1, #784
	mov	x0, x19
	sub	x27, x27, x28
	str	x8, [sp, #272]                  ; 8-byte Folded Spill
	blr	x21
	add	x19, x19, x28
	sub	x20, x20, #1
	b	LBB2_423
LBB2_206:
	ldr	x10, [sp, #240]                 ; 8-byte Folded Reload
	lsl	x9, x28, #1
	mov	x11, x28
	sub	x8, x25, x10
	udiv	x20, x8, x9
	mul	x8, x20, x28
	add	x23, x10, x8
	sub	x22, x25, x8
	tbnz	w20, #0, LBB2_464
; %bb.207:
	add	x0, sp, #1, lsl #12             ; =4096
	mov	x1, x23
	add	x0, x0, #784
	ldr	x19, [sp, #264]                 ; 8-byte Folded Reload
	blr	x19
	mov	x0, x23
	mov	x1, x22
	blr	x19
	add	x1, sp, #1, lsl #12             ; =4096
	neg	x8, x28
	add	x1, x1, #784
	mov	x0, x22
	sub	x23, x23, x28
	str	x8, [sp, #360]                  ; 8-byte Folded Spill
	blr	x19
	ldr	x10, [sp, #240]                 ; 8-byte Folded Reload
	add	x22, x22, x28
	sub	x20, x20, #1
	b	LBB2_465
LBB2_208:
	add	x10, x22, #1
	lsl	x9, x28, #1
	sub	x8, x21, x10
	mov	x11, x28
	udiv	x20, x8, x9
	str	x10, [sp, #280]                 ; 8-byte Folded Spill
	mul	x8, x20, x28
	add	x27, x10, x8
	sub	x19, x21, x8
	tbnz	w20, #0, LBB2_468
; %bb.209:
	add	x0, sp, #1, lsl #12             ; =4096
	mov	x1, x27
	add	x0, x0, #784
	ldr	x23, [sp, #264]                 ; 8-byte Folded Reload
	blr	x23
	mov	x0, x27
	mov	x1, x19
	blr	x23
	add	x1, sp, #1, lsl #12             ; =4096
	neg	x8, x28
	add	x1, x1, #784
	mov	x0, x19
	sub	x27, x27, x28
	str	x8, [sp, #272]                  ; 8-byte Folded Spill
	blr	x23
	add	x19, x19, x28
	sub	x20, x20, #1
	b	LBB2_469
LBB2_210:
	ldr	x10, [sp, #240]                 ; 8-byte Folded Reload
	lsl	x9, x28, #1
	mov	x11, x28
	sub	x8, x21, x10
	udiv	x20, x8, x9
	mul	x8, x20, x28
	add	x19, x10, x8
	sub	x26, x21, x8
	tbnz	w20, #0, LBB2_473
; %bb.211:
	add	x0, sp, #1, lsl #12             ; =4096
	mov	x1, x19
	add	x0, x0, #784
	ldr	x22, [sp, #264]                 ; 8-byte Folded Reload
	blr	x22
	mov	x0, x19
	mov	x1, x26
	blr	x22
	add	x1, sp, #1, lsl #12             ; =4096
	neg	x8, x28
	add	x1, x1, #784
	mov	x0, x26
	sub	x19, x19, x28
	str	x8, [sp, #296]                  ; 8-byte Folded Spill
	blr	x22
	ldr	x10, [sp, #240]                 ; 8-byte Folded Reload
	add	x26, x26, x28
	sub	x20, x20, #1
	b	LBB2_474
LBB2_212:
	add	x10, x13, #1
	lsl	x9, x28, #1
	sub	x8, x11, x10
	mov	x12, x28
	str	x23, [sp, #216]                 ; 8-byte Folded Spill
	udiv	x20, x8, x9
	str	x10, [sp, #280]                 ; 8-byte Folded Spill
	mul	x8, x20, x28
	add	x27, x10, x8
	sub	x19, x11, x8
	tbnz	w20, #0, LBB2_478
; %bb.213:
	add	x0, sp, #1, lsl #12             ; =4096
	mov	x1, x27
	add	x0, x0, #784
	ldr	x21, [sp, #264]                 ; 8-byte Folded Reload
	blr	x21
	mov	x0, x27
	mov	x1, x19
	blr	x21
	add	x1, sp, #1, lsl #12             ; =4096
	neg	x8, x28
	add	x1, x1, #784
	mov	x0, x19
	sub	x27, x27, x28
	str	x8, [sp, #272]                  ; 8-byte Folded Spill
	blr	x21
	ldr	x11, [sp, #312]                 ; 8-byte Folded Reload
	add	x19, x19, x28
	sub	x20, x20, #1
	b	LBB2_479
LBB2_214:
	ldr	x9, [sp, #240]                  ; 8-byte Folded Reload
	lsl	x10, x28, #1
	mov	x11, x28
	sub	x8, x13, x9
	str	x10, [sp, #296]                 ; 8-byte Folded Spill
	udiv	x20, x8, x10
	mul	x8, x20, x28
	add	x27, x9, x8
	sub	x19, x13, x8
	tbnz	w20, #0, LBB2_483
; %bb.215:
	add	x0, sp, #1, lsl #12             ; =4096
	mov	x1, x27
	add	x0, x0, #784
	ldr	x21, [sp, #264]                 ; 8-byte Folded Reload
	blr	x21
	mov	x0, x27
	mov	x1, x19
	blr	x21
	add	x1, sp, #1, lsl #12             ; =4096
	neg	x8, x28
	add	x1, x1, #784
	mov	x0, x19
	sub	x27, x27, x28
	str	x8, [sp, #336]                  ; 8-byte Folded Spill
	blr	x21
	ldr	x9, [sp, #240]                  ; 8-byte Folded Reload
	add	x19, x19, x28
	sub	x20, x20, #1
	b	LBB2_484
LBB2_216:
	add	x10, x22, #1
	lsl	x9, x28, #1
	sub	x8, x11, x10
	mov	x12, x28
	udiv	x20, x8, x9
	str	x10, [sp, #280]                 ; 8-byte Folded Spill
	mul	x8, x20, x28
	add	x27, x10, x8
	sub	x19, x11, x8
	tbnz	w20, #0, LBB2_489
; %bb.217:
	add	x0, sp, #1, lsl #12             ; =4096
	mov	x1, x27
	add	x0, x0, #784
	ldr	x21, [sp, #264]                 ; 8-byte Folded Reload
	blr	x21
	mov	x0, x27
	mov	x1, x19
	blr	x21
	add	x1, sp, #1, lsl #12             ; =4096
	neg	x8, x28
	add	x1, x1, #784
	mov	x0, x19
	sub	x27, x27, x28
	str	x8, [sp, #272]                  ; 8-byte Folded Spill
	blr	x21
	ldr	x11, [sp, #312]                 ; 8-byte Folded Reload
	add	x19, x19, x28
	sub	x20, x20, #1
	b	LBB2_490
LBB2_218:
	ldr	x10, [sp, #240]                 ; 8-byte Folded Reload
	lsl	x9, x28, #1
	mov	x12, x28
	sub	x8, x11, x10
	udiv	x21, x8, x9
	mul	x8, x21, x28
	add	x23, x10, x8
	sub	x20, x11, x8
	tbnz	w21, #0, LBB2_533
; %bb.219:
	add	x0, sp, #1, lsl #12             ; =4096
	mov	x1, x23
	add	x0, x0, #784
	ldr	x19, [sp, #264]                 ; 8-byte Folded Reload
	blr	x19
	mov	x0, x23
	mov	x1, x20
	blr	x19
	add	x1, sp, #1, lsl #12             ; =4096
	neg	x8, x28
	add	x1, x1, #784
	mov	x0, x20
	sub	x23, x23, x28
	str	x8, [sp, #360]                  ; 8-byte Folded Spill
	blr	x19
	ldr	x11, [sp, #312]                 ; 8-byte Folded Reload
	add	x20, x20, x28
	ldr	x10, [sp, #240]                 ; 8-byte Folded Reload
	sub	x21, x21, #1
	b	LBB2_534
LBB2_220:
	add	x8, x6, #1
	sub	x12, x5, x8
	lsr	x9, x12, #4
	lsl	x10, x9, #3
	add	x11, x8, x10
	sub	x10, x5, x10
	tbnz	w12, #4, LBB2_222
; %bb.221:
	ldr	x12, [x10]
	sub	x9, x9, #1
	ldr	x13, [x11]
	str	x12, [x11], #-8
	str	x13, [x10], #8
LBB2_222:                               ; %._crit_edge.i292.i.i
	ldr	x12, [x5]
	cmp	x9, #2
	ldr	x13, [x8]
	str	x12, [x8]
	str	x13, [x5]
	ldr	x12, [x10]
	ldr	x13, [x11]
	str	x12, [x11]
	str	x13, [x10]
	b.lo	LBB2_953
; %bb.223:                              ; %.lr.ph185.preheader.i.i
	lsr	x12, x9, #1
	cmp	x9, #48
	b.lo	LBB2_950
; %bb.224:                              ; %vector.scevcheck1981
	sub	x13, x12, #1
	sub	x15, x5, #8
	lsl	x14, x13, #3
	sub	x16, x15, x14
	cmp	x16, x15
	b.hi	LBB2_950
; %bb.225:                              ; %vector.scevcheck1981
	sub	x15, x11, #8
	sub	x14, x15, x14
	cmp	x14, x15
	b.hi	LBB2_950
; %bb.226:                              ; %vector.scevcheck1981
	lsr	x13, x13, #61
	cbnz	x13, LBB2_950
; %bb.227:                              ; %vector.memcheck1990
	add	x0, x6, #9
	lsl	x14, x12, #3
	add	x1, x0, x14
	sub	x17, x5, x14
	cmp	x0, x5
	sub	x2, x11, x14
	ccmp	x17, x1, #2, lo
	add	x3, x10, #8
	add	x4, x3, x14
	cset	w13, lo
	cmp	x0, x11
	ccmp	x2, x1, #2, lo
	cset	w14, lo
	cmp	x3, x5
	ccmp	x17, x4, #2, lo
	cset	w15, lo
	cmp	x3, x11
	ccmp	x2, x4, #2, lo
	cset	w16, lo
	cmp	x17, x11
	ccmp	x2, x5, #2, lo
	cset	w17, lo
	cmp	x3, x1
	ccmp	x0, x4, #2, lo
	b.lo	LBB2_949
; %bb.228:                              ; %vector.memcheck1990
	tbnz	w13, #0, LBB2_949
; %bb.229:                              ; %vector.memcheck1990
	tbnz	w14, #0, LBB2_949
; %bb.230:                              ; %vector.memcheck1990
	tbnz	w15, #0, LBB2_949
; %bb.231:                              ; %vector.memcheck1990
	tbnz	w16, #0, LBB2_949
; %bb.232:                              ; %vector.memcheck1990
	tbnz	w17, #0, LBB2_949
; %bb.233:                              ; %vector.ph2023
	and	x16, x12, #0x7ffffffffffffffe
	ubfx	x9, x9, #1, #1
	lsl	x15, x16, #3
	add	x17, x6, #9
	add	x8, x8, x15
	sub	x13, x11, x15
	add	x14, x10, x15
	sub	x15, x5, x15
	add	x10, x10, #8
	sub	x0, x5, #16
	sub	x11, x11, #16
	neg	x1, x16
LBB2_234:                               ; %vector.body2037
                                        ; =>This Inner Loop Header: Depth=1
	ldr	q0, [x0]
	adds	x1, x1, #2
	ldr	q1, [x17]
	ext.16b	v0, v0, v0, #8
	ext.16b	v1, v1, v1, #8
	str	q0, [x17], #16
	str	q1, [x0], #-16
	ldr	q0, [x10]
	ldr	q1, [x11]
	ext.16b	v0, v0, v0, #8
	ext.16b	v1, v1, v1, #8
	str	q0, [x11], #-16
	str	q1, [x10], #16
	b.ne	LBB2_234
; %bb.235:                              ; %middle.block2020
	ldr	x1, [sp, #304]                  ; 8-byte Folded Reload
	cmp	x12, x16
	b.ne	LBB2_951
	b	LBB2_953
LBB2_236:
	ldr	x10, [sp, #208]                 ; 8-byte Folded Reload
	sub	x11, x5, x10
	lsr	x8, x11, #4
	lsl	x9, x8, #3
	add	x10, x10, x9
	sub	x9, x5, x9
	tbnz	w11, #4, LBB2_238
; %bb.237:
	ldr	x11, [x9]
	sub	x8, x8, #1
	ldr	x12, [x10]
	str	x11, [x10], #-8
	str	x12, [x9], #8
LBB2_238:
	ldr	x13, [sp, #208]                 ; 8-byte Folded Reload
	mov	x24, x23
	ldr	x11, [x5]
	cmp	x8, #2
	ldr	w6, [sp, #280]                  ; 4-byte Folded Reload
	ldr	x12, [x13]
	str	x11, [x13]
	str	x12, [x5]
	ldr	x11, [x9]
	ldr	x12, [x10]
	str	x11, [x10]
	str	x12, [x9]
	b.lo	LBB2_727
; %bb.239:                              ; %.lr.ph179.preheader.i.i
	lsr	x11, x8, #1
	cmp	x8, #48
	b.lo	LBB2_723
; %bb.240:                              ; %vector.scevcheck1910
	sub	x12, x11, #1
	sub	x14, x5, #8
	lsl	x13, x12, #3
	sub	x15, x14, x13
	cmp	x15, x14
	b.hi	LBB2_723
; %bb.241:                              ; %vector.scevcheck1910
	sub	x14, x10, #8
	sub	x13, x14, x13
	cmp	x13, x14
	b.hi	LBB2_723
; %bb.242:                              ; %vector.scevcheck1910
	lsr	x12, x12, #61
	cbnz	x12, LBB2_723
; %bb.243:                              ; %vector.memcheck1919
	ldr	x14, [sp, #208]                 ; 8-byte Folded Reload
	lsl	x12, x11, #3
	add	x13, x12, #8
	sub	x16, x5, x12
	sub	x1, x10, x12
	add	x2, x9, #8
	add	x17, x14, #8
	add	x0, x14, x13
	cmp	x17, x5
	add	x3, x9, x13
	ccmp	x16, x0, #2, lo
	cset	w12, lo
	cmp	x17, x10
	ccmp	x1, x0, #2, lo
	cset	w13, lo
	cmp	x2, x5
	ccmp	x16, x3, #2, lo
	cset	w14, lo
	cmp	x2, x10
	ccmp	x1, x3, #2, lo
	cset	w15, lo
	cmp	x16, x10
	ccmp	x1, x5, #2, lo
	cset	w16, lo
	cmp	x2, x0
	ccmp	x17, x3, #2, lo
	b.lo	LBB2_1053
; %bb.244:                              ; %vector.memcheck1919
	tbnz	w12, #0, LBB2_1053
; %bb.245:                              ; %vector.memcheck1919
	ldr	x1, [sp, #304]                  ; 8-byte Folded Reload
	tbnz	w13, #0, LBB2_723
; %bb.246:                              ; %vector.memcheck1919
	tbnz	w14, #0, LBB2_723
; %bb.247:                              ; %vector.memcheck1919
	tbnz	w15, #0, LBB2_723
; %bb.248:                              ; %vector.memcheck1919
	tbnz	w16, #0, LBB2_723
; %bb.249:                              ; %vector.ph1952
	ldr	x17, [sp, #208]                 ; 8-byte Folded Reload
	and	x16, x11, #0x7ffffffffffffffe
	lsl	x15, x16, #3
	ubfx	x8, x8, #1, #1
	sub	x13, x10, x15
	add	x14, x9, x15
	add	x12, x17, x15
	sub	x15, x5, x15
	add	x17, x17, #8
	add	x9, x9, #8
	sub	x0, x5, #16
	sub	x10, x10, #16
	neg	x1, x16
LBB2_250:                               ; %vector.body1966
                                        ; =>This Inner Loop Header: Depth=1
	ldr	q0, [x0]
	adds	x1, x1, #2
	ldr	q1, [x17]
	ext.16b	v0, v0, v0, #8
	ext.16b	v1, v1, v1, #8
	str	q0, [x17], #16
	str	q1, [x0], #-16
	ldr	q0, [x9]
	ldr	q1, [x10]
	ext.16b	v0, v0, v0, #8
	ext.16b	v1, v1, v1, #8
	str	q0, [x10], #-16
	str	q1, [x9], #16
	b.ne	LBB2_250
; %bb.251:                              ; %middle.block1949
	ldr	x1, [sp, #304]                  ; 8-byte Folded Reload
	cmp	x11, x16
	b.ne	LBB2_725
	b	LBB2_727
LBB2_252:
	ldr	x8, [sp, #344]                  ; 8-byte Folded Reload
	add	x8, x8, #1
	sub	x12, x7, x8
	lsr	x9, x12, #4
	lsl	x10, x9, #3
	add	x11, x8, x10
	sub	x10, x7, x10
	tbnz	w12, #4, LBB2_254
; %bb.253:
	ldr	x12, [x10]
	sub	x9, x9, #1
	ldr	x13, [x11]
	str	x12, [x11], #-8
	str	x13, [x10], #8
LBB2_254:                               ; %._crit_edge.i312.i.i
	ldr	x12, [x7]
	cmp	x9, #2
	ldr	x13, [x8]
	str	x12, [x8]
	str	x13, [x7]
	ldr	x12, [x10]
	ldr	x13, [x11]
	str	x12, [x11]
	str	x13, [x10]
	b.lo	LBB2_1058
; %bb.255:                              ; %.lr.ph173.preheader.i.i
	lsr	x12, x9, #1
	cmp	x9, #48
	b.lo	LBB2_1055
; %bb.256:                              ; %vector.scevcheck1839
	sub	x13, x12, #1
	sub	x15, x7, #8
	lsl	x14, x13, #3
	sub	x16, x15, x14
	cmp	x16, x15
	b.hi	LBB2_1055
; %bb.257:                              ; %vector.scevcheck1839
	sub	x15, x11, #8
	sub	x14, x15, x14
	cmp	x14, x15
	b.hi	LBB2_1055
; %bb.258:                              ; %vector.scevcheck1839
	lsr	x13, x13, #61
	cbnz	x13, LBB2_1055
; %bb.259:                              ; %vector.memcheck1848
	ldr	x13, [sp, #344]                 ; 8-byte Folded Reload
	lsl	x14, x12, #3
	sub	x17, x7, x14
	sub	x2, x11, x14
	add	x3, x10, #8
	add	x0, x13, #9
	add	x4, x3, x14
	add	x1, x0, x14
	cmp	x0, x7
	ccmp	x17, x1, #2, lo
	cset	w13, lo
	cmp	x0, x11
	ccmp	x2, x1, #2, lo
	cset	w14, lo
	cmp	x3, x7
	ccmp	x17, x4, #2, lo
	cset	w15, lo
	cmp	x3, x11
	ccmp	x2, x4, #2, lo
	cset	w16, lo
	cmp	x17, x11
	ccmp	x2, x7, #2, lo
	cset	w17, lo
	cmp	x3, x1
	ccmp	x0, x4, #2, lo
	b.lo	LBB2_1054
; %bb.260:                              ; %vector.memcheck1848
	tbnz	w13, #0, LBB2_1054
; %bb.261:                              ; %vector.memcheck1848
	ldr	x4, [sp, #296]                  ; 8-byte Folded Reload
	tbnz	w14, #0, LBB2_1055
; %bb.262:                              ; %vector.memcheck1848
	tbnz	w15, #0, LBB2_1055
; %bb.263:                              ; %vector.memcheck1848
	tbnz	w16, #0, LBB2_1055
; %bb.264:                              ; %vector.memcheck1848
	tbnz	w17, #0, LBB2_1055
; %bb.265:                              ; %vector.ph1881
	ldr	x17, [sp, #344]                 ; 8-byte Folded Reload
	and	x16, x12, #0x7ffffffffffffffe
	lsl	x15, x16, #3
	ubfx	x9, x9, #1, #1
	add	x8, x8, x15
	sub	x13, x11, x15
	add	x14, x10, x15
	sub	x15, x7, x15
	add	x17, x17, #9
	add	x10, x10, #8
	sub	x0, x7, #16
	sub	x11, x11, #16
	neg	x1, x16
LBB2_266:                               ; %vector.body1895
                                        ; =>This Inner Loop Header: Depth=1
	ldr	q0, [x0]
	adds	x1, x1, #2
	ldr	q1, [x17]
	ext.16b	v0, v0, v0, #8
	ext.16b	v1, v1, v1, #8
	str	q0, [x17], #16
	str	q1, [x0], #-16
	ldr	q0, [x10]
	ldr	q1, [x11]
	ext.16b	v0, v0, v0, #8
	ext.16b	v1, v1, v1, #8
	str	q0, [x11], #-16
	str	q1, [x10], #16
	b.ne	LBB2_266
; %bb.267:                              ; %middle.block1878
	cmp	x12, x16
	b.ne	LBB2_1056
	b	LBB2_1058
LBB2_268:
	ldr	x10, [sp, #208]                 ; 8-byte Folded Reload
	ldr	x12, [sp, #344]                 ; 8-byte Folded Reload
	sub	x11, x12, x10
	lsr	x8, x11, #4
	lsl	x9, x8, #3
	add	x10, x10, x9
	sub	x9, x12, x9
	tbnz	w11, #4, LBB2_270
; %bb.269:
	ldr	x11, [x9]
	sub	x8, x8, #1
	ldr	x12, [x10]
	str	x11, [x10], #-8
	str	x12, [x9], #8
LBB2_270:
	ldr	x14, [sp, #344]                 ; 8-byte Folded Reload
	mov	x24, x23
	ldr	x13, [sp, #208]                 ; 8-byte Folded Reload
	cmp	x8, #2
	ldr	w5, [sp, #232]                  ; 4-byte Folded Reload
	ldr	x11, [x14]
	ldr	x12, [x13]
	ldr	w6, [sp, #280]                  ; 4-byte Folded Reload
	str	x11, [x13]
	str	x12, [x14]
	ldr	x11, [x9]
	ldr	x12, [x10]
	str	x11, [x10]
	str	x12, [x9]
	b.lo	LBB2_668
; %bb.271:                              ; %.lr.ph161.preheader.i.i
	lsr	x11, x8, #1
	cmp	x8, #48
	b.lo	LBB2_665
; %bb.272:                              ; %vector.scevcheck1697
	ldr	x13, [sp, #344]                 ; 8-byte Folded Reload
	sub	x12, x11, #1
	sub	x14, x13, #8
	lsl	x13, x12, #3
	sub	x15, x14, x13
	cmp	x15, x14
	b.hi	LBB2_665
; %bb.273:                              ; %vector.scevcheck1697
	sub	x14, x10, #8
	sub	x13, x14, x13
	cmp	x13, x14
	b.hi	LBB2_665
; %bb.274:                              ; %vector.scevcheck1697
	lsr	x12, x12, #61
	cbnz	x12, LBB2_665
; %bb.275:                              ; %vector.memcheck1706
	ldr	x14, [sp, #208]                 ; 8-byte Folded Reload
	lsl	x12, x11, #3
	ldr	x4, [sp, #344]                  ; 8-byte Folded Reload
	add	x13, x12, #8
	sub	x1, x10, x12
	add	x2, x9, #8
	add	x17, x14, #8
	add	x0, x14, x13
	sub	x16, x4, x12
	cmp	x17, x4
	ccmp	x16, x0, #2, lo
	add	x3, x9, x13
	cset	w12, lo
	cmp	x17, x10
	ccmp	x1, x0, #2, lo
	cset	w13, lo
	cmp	x2, x4
	ccmp	x16, x3, #2, lo
	cset	w14, lo
	cmp	x2, x10
	ccmp	x1, x3, #2, lo
	cset	w15, lo
	cmp	x16, x10
	ccmp	x1, x4, #2, lo
	cset	w16, lo
	cmp	x2, x0
	ccmp	x17, x3, #2, lo
	b.lo	LBB2_665
; %bb.276:                              ; %vector.memcheck1706
	tbnz	w12, #0, LBB2_665
; %bb.277:                              ; %vector.memcheck1706
	tbnz	w13, #0, LBB2_665
; %bb.278:                              ; %vector.memcheck1706
	tbnz	w14, #0, LBB2_665
; %bb.279:                              ; %vector.memcheck1706
	tbnz	w15, #0, LBB2_665
; %bb.280:                              ; %vector.memcheck1706
	tbnz	w16, #0, LBB2_665
; %bb.281:                              ; %vector.ph1739
	ldr	x17, [sp, #208]                 ; 8-byte Folded Reload
	and	x16, x11, #0x7ffffffffffffffe
	ldr	x0, [sp, #344]                  ; 8-byte Folded Reload
	lsl	x15, x16, #3
	ubfx	x8, x8, #1, #1
	sub	x13, x10, x15
	add	x12, x17, x15
	add	x14, x9, x15
	sub	x15, x0, x15
	add	x17, x17, #8
	add	x9, x9, #8
	sub	x0, x0, #16
	sub	x10, x10, #16
	neg	x1, x16
LBB2_282:                               ; %vector.body1753
                                        ; =>This Inner Loop Header: Depth=1
	ldr	q0, [x0]
	adds	x1, x1, #2
	ldr	q1, [x17]
	ext.16b	v0, v0, v0, #8
	ext.16b	v1, v1, v1, #8
	str	q0, [x17], #16
	str	q1, [x0], #-16
	ldr	q0, [x9]
	ldr	q1, [x10]
	ext.16b	v0, v0, v0, #8
	ext.16b	v1, v1, v1, #8
	str	q0, [x10], #-16
	str	q1, [x9], #16
	b.ne	LBB2_282
; %bb.283:                              ; %middle.block1736
	cmp	x11, x16
	b.ne	LBB2_666
	b	LBB2_668
LBB2_284:
	add	x8, x6, #1
	sub	x12, x7, x8
	lsr	x9, x12, #4
	lsl	x10, x9, #3
	add	x11, x8, x10
	sub	x10, x7, x10
	tbnz	w12, #4, LBB2_286
; %bb.285:
	ldr	x12, [x10]
	sub	x9, x9, #1
	ldr	x13, [x11]
	str	x12, [x11], #-8
	str	x13, [x10], #8
LBB2_286:                               ; %._crit_edge.i342.i.i
	ldr	x12, [x7]
	cmp	x9, #2
	ldr	x13, [x8]
	str	x12, [x8]
	str	x13, [x7]
	ldr	x12, [x10]
	ldr	x13, [x11]
	str	x12, [x11]
	str	x13, [x10]
	b.lo	LBB2_687
; %bb.287:                              ; %.lr.ph155.preheader.i.i
	lsr	x12, x9, #1
	cmp	x9, #48
	b.lo	LBB2_684
; %bb.288:                              ; %vector.scevcheck1626
	sub	x13, x12, #1
	sub	x15, x7, #8
	lsl	x14, x13, #3
	sub	x16, x15, x14
	cmp	x16, x15
	b.hi	LBB2_684
; %bb.289:                              ; %vector.scevcheck1626
	sub	x15, x11, #8
	sub	x14, x15, x14
	cmp	x14, x15
	b.hi	LBB2_684
; %bb.290:                              ; %vector.scevcheck1626
	lsr	x13, x13, #61
	cbnz	x13, LBB2_684
; %bb.291:                              ; %vector.memcheck1635
	add	x0, x6, #9
	lsl	x14, x12, #3
	add	x1, x0, x14
	sub	x17, x7, x14
	cmp	x0, x7
	sub	x2, x11, x14
	ccmp	x17, x1, #2, lo
	add	x3, x10, #8
	add	x4, x3, x14
	cset	w13, lo
	cmp	x0, x11
	ccmp	x2, x1, #2, lo
	cset	w14, lo
	cmp	x3, x7
	ccmp	x17, x4, #2, lo
	cset	w15, lo
	cmp	x3, x11
	ccmp	x2, x4, #2, lo
	cset	w16, lo
	cmp	x17, x11
	ccmp	x2, x7, #2, lo
	cset	w17, lo
	cmp	x3, x1
	ccmp	x0, x4, #2, lo
	b.lo	LBB2_684
; %bb.292:                              ; %vector.memcheck1635
	tbnz	w13, #0, LBB2_684
; %bb.293:                              ; %vector.memcheck1635
	tbnz	w14, #0, LBB2_684
; %bb.294:                              ; %vector.memcheck1635
	tbnz	w15, #0, LBB2_684
; %bb.295:                              ; %vector.memcheck1635
	tbnz	w16, #0, LBB2_684
; %bb.296:                              ; %vector.memcheck1635
	tbnz	w17, #0, LBB2_684
; %bb.297:                              ; %vector.ph1668
	and	x16, x12, #0x7ffffffffffffffe
	ubfx	x9, x9, #1, #1
	lsl	x15, x16, #3
	add	x17, x6, #9
	add	x8, x8, x15
	sub	x13, x11, x15
	add	x14, x10, x15
	sub	x15, x7, x15
	add	x10, x10, #8
	sub	x0, x7, #16
	sub	x11, x11, #16
	neg	x1, x16
LBB2_298:                               ; %vector.body1682
                                        ; =>This Inner Loop Header: Depth=1
	ldr	q0, [x0]
	adds	x1, x1, #2
	ldr	q1, [x17]
	ext.16b	v0, v0, v0, #8
	ext.16b	v1, v1, v1, #8
	str	q0, [x17], #16
	str	q1, [x0], #-16
	ldr	q0, [x10]
	ldr	q1, [x11]
	ext.16b	v0, v0, v0, #8
	ext.16b	v1, v1, v1, #8
	str	q0, [x11], #-16
	str	q1, [x10], #16
	b.ne	LBB2_298
; %bb.299:                              ; %middle.block1665
	cmp	x12, x16
	b.ne	LBB2_685
	b	LBB2_687
LBB2_300:
	ldr	x13, [sp, #208]                 ; 8-byte Folded Reload
	sub	x11, x7, x13
	lsr	x8, x11, #4
	lsl	x9, x8, #3
	add	x10, x13, x9
	sub	x9, x7, x9
	tbnz	w11, #4, LBB2_302
; %bb.301:
	ldr	x11, [x9]
	sub	x8, x8, #1
	ldr	x12, [x10]
	str	x11, [x10], #-8
	str	x12, [x9], #8
LBB2_302:                               ; %._crit_edge.i352.i.i
	ldr	x11, [x7]
	cmp	x8, #2
	ldr	x12, [x13]
	str	x11, [x13]
	str	x12, [x7]
	ldr	x11, [x9]
	ldr	x12, [x10]
	str	x11, [x10]
	str	x12, [x9]
	b.lo	LBB2_1241
; %bb.303:                              ; %.lr.ph149.preheader.i.i
	lsr	x11, x8, #1
	cmp	x8, #48
	b.hs	LBB2_917
; %bb.304:
	ldr	x12, [sp, #208]                 ; 8-byte Folded Reload
	mov	x8, x11
	ldr	x15, [sp, #312]                 ; 8-byte Folded Reload
	mov	x13, x10
	mov	x14, x9
	b	LBB2_942
LBB2_305:
	ldr	x13, [sp, #344]                 ; 8-byte Folded Reload
	add	x8, x5, #1
	sub	x12, x13, x8
	lsr	x9, x12, #4
	lsl	x10, x9, #3
	add	x11, x8, x10
	sub	x10, x13, x10
	tbnz	w12, #4, LBB2_307
; %bb.306:
	ldr	x12, [x10]
	sub	x9, x9, #1
	ldr	x13, [x11]
	str	x12, [x11], #-8
	str	x13, [x10], #8
LBB2_307:                               ; %._crit_edge.i290.i.i
	ldr	x14, [sp, #344]                 ; 8-byte Folded Reload
	cmp	x9, #2
	ldr	x13, [x8]
	ldr	x12, [x14]
	str	x12, [x8]
	str	x13, [x14]
	ldr	x12, [x10]
	ldr	x13, [x11]
	str	x12, [x11]
	str	x13, [x10]
	b.lo	LBB2_742
; %bb.308:                              ; %.lr.ph182.preheader.i.i
	lsr	x12, x9, #1
	cmp	x9, #48
	b.lo	LBB2_738
; %bb.309:                              ; %vector.scevcheck1129
	ldr	x14, [sp, #344]                 ; 8-byte Folded Reload
	sub	x13, x12, #1
	sub	x15, x14, #8
	lsl	x14, x13, #3
	sub	x16, x15, x14
	cmp	x16, x15
	b.hi	LBB2_738
; %bb.310:                              ; %vector.scevcheck1129
	sub	x15, x11, #8
	sub	x14, x15, x14
	cmp	x14, x15
	b.hi	LBB2_738
; %bb.311:                              ; %vector.scevcheck1129
	lsr	x13, x13, #61
	cbnz	x13, LBB2_738
; %bb.312:                              ; %vector.memcheck1138
	mov	x21, x20
	ldr	x20, [sp, #344]                 ; 8-byte Folded Reload
	add	x0, x5, #9
	lsl	x14, x12, #3
	add	x1, x0, x14
	sub	x2, x11, x14
	sub	x17, x20, x14
	cmp	x0, x20
	ccmp	x17, x1, #2, lo
	add	x3, x10, #8
	add	x4, x3, x14
	cset	w13, lo
	cmp	x0, x11
	ccmp	x2, x1, #2, lo
	cset	w14, lo
	cmp	x3, x20
	ccmp	x17, x4, #2, lo
	cset	w15, lo
	cmp	x3, x11
	ccmp	x2, x4, #2, lo
	cset	w16, lo
	cmp	x17, x11
	ccmp	x2, x20, #2, lo
	cset	w17, lo
	cmp	x3, x1
	ccmp	x0, x4, #2, lo
	b.lo	LBB2_1254
; %bb.313:                              ; %vector.memcheck1138
	tbnz	w13, #0, LBB2_1254
; %bb.314:                              ; %vector.memcheck1138
	mov	x20, x21
	tbnz	w14, #0, LBB2_955
; %bb.315:                              ; %vector.memcheck1138
	tbnz	w15, #0, LBB2_955
; %bb.316:                              ; %vector.memcheck1138
	tbnz	w16, #0, LBB2_955
; %bb.317:                              ; %vector.memcheck1138
	tbnz	w17, #0, LBB2_955
; %bb.318:                              ; %vector.ph1171
	ldr	x0, [sp, #344]                  ; 8-byte Folded Reload
	and	x16, x12, #0x7ffffffffffffffe
	lsl	x15, x16, #3
	ubfx	x9, x9, #1, #1
	add	x8, x8, x15
	sub	x13, x11, x15
	add	x14, x10, x15
	sub	x15, x0, x15
	add	x17, x5, #9
	add	x10, x10, #8
	sub	x0, x0, #16
	sub	x11, x11, #16
	neg	x1, x16
LBB2_319:                               ; %vector.body1185
                                        ; =>This Inner Loop Header: Depth=1
	ldr	q0, [x0]
	adds	x1, x1, #2
	ldr	q1, [x17]
	ext.16b	v0, v0, v0, #8
	ext.16b	v1, v1, v1, #8
	str	q0, [x17], #16
	str	q1, [x0], #-16
	ldr	q0, [x10]
	ldr	q1, [x11]
	ext.16b	v0, v0, v0, #8
	ext.16b	v1, v1, v1, #8
	str	q0, [x11], #-16
	str	q1, [x10], #16
	b.ne	LBB2_319
; %bb.320:                              ; %middle.block1168
	ldr	x1, [sp, #304]                  ; 8-byte Folded Reload
	cmp	x12, x16
	b.ne	LBB2_740
	b	LBB2_742
LBB2_321:
	ldr	x10, [sp, #208]                 ; 8-byte Folded Reload
	ldr	x12, [sp, #344]                 ; 8-byte Folded Reload
	sub	x11, x12, x10
	lsr	x8, x11, #4
	lsl	x9, x8, #3
	add	x10, x10, x9
	sub	x9, x12, x9
	tbnz	w11, #4, LBB2_323
; %bb.322:
	ldr	x11, [x9]
	sub	x8, x8, #1
	ldr	x12, [x10]
	str	x11, [x10], #-8
	str	x12, [x9], #8
LBB2_323:
	ldr	x14, [sp, #344]                 ; 8-byte Folded Reload
	cmp	x8, #2
	ldr	x13, [sp, #208]                 ; 8-byte Folded Reload
	ldr	w5, [sp, #256]                  ; 4-byte Folded Reload
	ldr	x11, [x14]
	ldr	x12, [x13]
	str	x11, [x13]
	str	x12, [x14]
	ldr	x11, [x9]
	ldr	x12, [x10]
	str	x11, [x10]
	str	x12, [x9]
	b.lo	LBB2_732
; %bb.324:                              ; %.lr.ph176.preheader.i.i
	lsr	x11, x8, #1
	cmp	x8, #48
	b.lo	LBB2_728
; %bb.325:                              ; %vector.scevcheck1058
	ldr	x13, [sp, #344]                 ; 8-byte Folded Reload
	sub	x12, x11, #1
	sub	x14, x13, #8
	lsl	x13, x12, #3
	sub	x15, x14, x13
	cmp	x15, x14
	b.hi	LBB2_728
; %bb.326:                              ; %vector.scevcheck1058
	sub	x14, x10, #8
	sub	x13, x14, x13
	cmp	x13, x14
	b.hi	LBB2_728
; %bb.327:                              ; %vector.scevcheck1058
	lsr	x12, x12, #61
	cbnz	x12, LBB2_728
; %bb.328:                              ; %vector.memcheck1067
	ldr	x14, [sp, #208]                 ; 8-byte Folded Reload
	lsl	x12, x11, #3
	ldr	x4, [sp, #344]                  ; 8-byte Folded Reload
	add	x13, x12, #8
	sub	x1, x10, x12
	add	x2, x9, #8
	add	x17, x14, #8
	add	x0, x14, x13
	sub	x16, x4, x12
	cmp	x17, x4
	ccmp	x16, x0, #2, lo
	add	x3, x9, x13
	cset	w12, lo
	cmp	x17, x10
	ccmp	x1, x0, #2, lo
	cset	w13, lo
	cmp	x2, x4
	ccmp	x16, x3, #2, lo
	cset	w14, lo
	cmp	x2, x10
	ccmp	x1, x3, #2, lo
	cset	w15, lo
	cmp	x16, x10
	ccmp	x1, x4, #2, lo
	cset	w16, lo
	cmp	x2, x0
	ccmp	x17, x3, #2, lo
	b.lo	LBB2_1255
; %bb.329:                              ; %vector.memcheck1067
	tbnz	w12, #0, LBB2_1255
; %bb.330:                              ; %vector.memcheck1067
	ldr	x1, [sp, #304]                  ; 8-byte Folded Reload
	tbnz	w13, #0, LBB2_728
; %bb.331:                              ; %vector.memcheck1067
	tbnz	w14, #0, LBB2_728
; %bb.332:                              ; %vector.memcheck1067
	tbnz	w15, #0, LBB2_728
; %bb.333:                              ; %vector.memcheck1067
	tbnz	w16, #0, LBB2_728
; %bb.334:                              ; %vector.ph1100
	ldr	x17, [sp, #208]                 ; 8-byte Folded Reload
	and	x16, x11, #0x7ffffffffffffffe
	ldr	x0, [sp, #344]                  ; 8-byte Folded Reload
	lsl	x15, x16, #3
	ubfx	x8, x8, #1, #1
	sub	x13, x10, x15
	add	x12, x17, x15
	add	x14, x9, x15
	sub	x15, x0, x15
	add	x17, x17, #8
	add	x9, x9, #8
	sub	x0, x0, #16
	sub	x10, x10, #16
	neg	x1, x16
LBB2_335:                               ; %vector.body1114
                                        ; =>This Inner Loop Header: Depth=1
	ldr	q0, [x0]
	adds	x1, x1, #2
	ldr	q1, [x17]
	ext.16b	v0, v0, v0, #8
	ext.16b	v1, v1, v1, #8
	str	q0, [x17], #16
	str	q1, [x0], #-16
	ldr	q0, [x9]
	ldr	q1, [x10]
	ext.16b	v0, v0, v0, #8
	ext.16b	v1, v1, v1, #8
	str	q0, [x10], #-16
	str	q1, [x9], #16
	b.ne	LBB2_335
; %bb.336:                              ; %middle.block1097
	ldr	x1, [sp, #304]                  ; 8-byte Folded Reload
	cmp	x11, x16
	b.ne	LBB2_730
	b	LBB2_732
LBB2_337:
	ldr	x8, [sp, #336]                  ; 8-byte Folded Reload
	add	x8, x8, #1
	sub	x12, x6, x8
	lsr	x9, x12, #4
	lsl	x10, x9, #3
	add	x11, x8, x10
	sub	x10, x6, x10
	tbnz	w12, #4, LBB2_339
; %bb.338:
	ldr	x12, [x10]
	sub	x9, x9, #1
	ldr	x13, [x11]
	str	x12, [x11], #-8
	str	x13, [x10], #8
LBB2_339:                               ; %._crit_edge.i310.i.i
	ldr	x12, [x6]
	cmp	x9, #2
	ldr	x13, [x8]
	str	x12, [x8]
	str	x13, [x6]
	ldr	x12, [x10]
	ldr	x13, [x11]
	str	x12, [x11]
	str	x13, [x10]
	b.lo	LBB2_691
; %bb.340:                              ; %.lr.ph170.preheader.i.i
	lsr	x12, x9, #1
	cmp	x9, #48
	b.lo	LBB2_688
; %bb.341:                              ; %vector.scevcheck987
	sub	x13, x12, #1
	sub	x15, x6, #8
	lsl	x14, x13, #3
	sub	x16, x15, x14
	cmp	x16, x15
	b.hi	LBB2_688
; %bb.342:                              ; %vector.scevcheck987
	sub	x15, x11, #8
	sub	x14, x15, x14
	cmp	x14, x15
	b.hi	LBB2_688
; %bb.343:                              ; %vector.scevcheck987
	lsr	x13, x13, #61
	cbnz	x13, LBB2_688
; %bb.344:                              ; %vector.memcheck996
	ldr	x13, [sp, #336]                 ; 8-byte Folded Reload
	lsl	x14, x12, #3
	sub	x17, x6, x14
	sub	x2, x11, x14
	add	x3, x10, #8
	add	x0, x13, #9
	add	x4, x3, x14
	add	x1, x0, x14
	cmp	x0, x6
	ccmp	x17, x1, #2, lo
	cset	w13, lo
	cmp	x0, x11
	ccmp	x2, x1, #2, lo
	cset	w14, lo
	cmp	x3, x6
	ccmp	x17, x4, #2, lo
	cset	w15, lo
	cmp	x3, x11
	ccmp	x2, x4, #2, lo
	cset	w16, lo
	cmp	x17, x11
	ccmp	x2, x6, #2, lo
	cset	w17, lo
	cmp	x3, x1
	ccmp	x0, x4, #2, lo
	b.lo	LBB2_688
; %bb.345:                              ; %vector.memcheck996
	tbnz	w13, #0, LBB2_688
; %bb.346:                              ; %vector.memcheck996
	tbnz	w14, #0, LBB2_688
; %bb.347:                              ; %vector.memcheck996
	tbnz	w15, #0, LBB2_688
; %bb.348:                              ; %vector.memcheck996
	tbnz	w16, #0, LBB2_688
; %bb.349:                              ; %vector.memcheck996
	tbnz	w17, #0, LBB2_688
; %bb.350:                              ; %vector.ph1029
	ldr	x17, [sp, #336]                 ; 8-byte Folded Reload
	and	x16, x12, #0x7ffffffffffffffe
	lsl	x15, x16, #3
	ubfx	x9, x9, #1, #1
	add	x8, x8, x15
	sub	x13, x11, x15
	add	x14, x10, x15
	sub	x15, x6, x15
	add	x17, x17, #9
	add	x10, x10, #8
	sub	x0, x6, #16
	sub	x11, x11, #16
	neg	x1, x16
LBB2_351:                               ; %vector.body1043
                                        ; =>This Inner Loop Header: Depth=1
	ldr	q0, [x0]
	adds	x1, x1, #2
	ldr	q1, [x17]
	ext.16b	v0, v0, v0, #8
	ext.16b	v1, v1, v1, #8
	str	q0, [x17], #16
	str	q1, [x0], #-16
	ldr	q0, [x10]
	ldr	q1, [x11]
	ext.16b	v0, v0, v0, #8
	ext.16b	v1, v1, v1, #8
	str	q0, [x11], #-16
	str	q1, [x10], #16
	b.ne	LBB2_351
; %bb.352:                              ; %middle.block1026
	cmp	x12, x16
	b.ne	LBB2_689
	b	LBB2_691
LBB2_353:
	ldr	x10, [sp, #208]                 ; 8-byte Folded Reload
	ldr	x12, [sp, #336]                 ; 8-byte Folded Reload
	sub	x11, x12, x10
	lsr	x8, x11, #4
	lsl	x9, x8, #3
	add	x10, x10, x9
	sub	x9, x12, x9
	tbnz	w11, #4, LBB2_355
; %bb.354:
	ldr	x11, [x9]
	sub	x8, x8, #1
	ldr	x12, [x10]
	str	x11, [x10], #-8
	str	x12, [x9], #8
LBB2_355:
	ldr	x14, [sp, #336]                 ; 8-byte Folded Reload
	cmp	x8, #2
	ldr	x13, [sp, #208]                 ; 8-byte Folded Reload
	ldr	w5, [sp, #256]                  ; 4-byte Folded Reload
	ldr	x11, [x14]
	ldr	x12, [x13]
	str	x11, [x13]
	str	x12, [x14]
	ldr	x11, [x9]
	ldr	x12, [x10]
	str	x11, [x10]
	str	x12, [x9]
	b.lo	LBB2_695
; %bb.356:                              ; %.lr.ph158.preheader.i.i
	lsr	x11, x8, #1
	cmp	x8, #48
	b.lo	LBB2_692
; %bb.357:                              ; %vector.scevcheck845
	ldr	x13, [sp, #336]                 ; 8-byte Folded Reload
	sub	x12, x11, #1
	sub	x14, x13, #8
	lsl	x13, x12, #3
	sub	x15, x14, x13
	cmp	x15, x14
	b.hi	LBB2_692
; %bb.358:                              ; %vector.scevcheck845
	sub	x14, x10, #8
	sub	x13, x14, x13
	cmp	x13, x14
	b.hi	LBB2_692
; %bb.359:                              ; %vector.scevcheck845
	lsr	x12, x12, #61
	cbnz	x12, LBB2_692
; %bb.360:                              ; %vector.memcheck854
	ldr	x14, [sp, #208]                 ; 8-byte Folded Reload
	lsl	x12, x11, #3
	ldr	x4, [sp, #336]                  ; 8-byte Folded Reload
	add	x13, x12, #8
	sub	x1, x10, x12
	add	x2, x9, #8
	add	x17, x14, #8
	add	x0, x14, x13
	sub	x16, x4, x12
	cmp	x17, x4
	ccmp	x16, x0, #2, lo
	add	x3, x9, x13
	cset	w12, lo
	cmp	x17, x10
	ccmp	x1, x0, #2, lo
	cset	w13, lo
	cmp	x2, x4
	ccmp	x16, x3, #2, lo
	cset	w14, lo
	cmp	x2, x10
	ccmp	x1, x3, #2, lo
	cset	w15, lo
	cmp	x16, x10
	ccmp	x1, x4, #2, lo
	cset	w16, lo
	cmp	x2, x0
	ccmp	x17, x3, #2, lo
	b.lo	LBB2_692
; %bb.361:                              ; %vector.memcheck854
	tbnz	w12, #0, LBB2_692
; %bb.362:                              ; %vector.memcheck854
	tbnz	w13, #0, LBB2_692
; %bb.363:                              ; %vector.memcheck854
	tbnz	w14, #0, LBB2_692
; %bb.364:                              ; %vector.memcheck854
	tbnz	w15, #0, LBB2_692
; %bb.365:                              ; %vector.memcheck854
	tbnz	w16, #0, LBB2_692
; %bb.366:                              ; %vector.ph887
	ldr	x17, [sp, #208]                 ; 8-byte Folded Reload
	and	x16, x11, #0x7ffffffffffffffe
	ldr	x0, [sp, #336]                  ; 8-byte Folded Reload
	lsl	x15, x16, #3
	ubfx	x8, x8, #1, #1
	sub	x13, x10, x15
	add	x12, x17, x15
	add	x14, x9, x15
	sub	x15, x0, x15
	add	x17, x17, #8
	add	x9, x9, #8
	sub	x0, x0, #16
	sub	x10, x10, #16
	neg	x1, x16
LBB2_367:                               ; %vector.body901
                                        ; =>This Inner Loop Header: Depth=1
	ldr	q0, [x0]
	adds	x1, x1, #2
	ldr	q1, [x17]
	ext.16b	v0, v0, v0, #8
	ext.16b	v1, v1, v1, #8
	str	q0, [x17], #16
	str	q1, [x0], #-16
	ldr	q0, [x9]
	ldr	q1, [x10]
	ext.16b	v0, v0, v0, #8
	ext.16b	v1, v1, v1, #8
	str	q0, [x10], #-16
	str	q1, [x9], #16
	b.ne	LBB2_367
; %bb.368:                              ; %middle.block884
	cmp	x11, x16
	b.ne	LBB2_693
	b	LBB2_695
LBB2_369:
	add	x8, x5, #1
	sub	x12, x6, x8
	lsr	x9, x12, #4
	lsl	x10, x9, #3
	add	x11, x8, x10
	sub	x10, x6, x10
	tbnz	w12, #4, LBB2_371
; %bb.370:
	ldr	x12, [x10]
	sub	x9, x9, #1
	ldr	x13, [x11]
	str	x12, [x11], #-8
	str	x13, [x10], #8
LBB2_371:                               ; %._crit_edge.i340.i.i
	ldr	x12, [x6]
	cmp	x9, #2
	ldr	x13, [x8]
	str	x12, [x8]
	str	x13, [x6]
	ldr	x12, [x10]
	ldr	x13, [x11]
	str	x12, [x11]
	str	x13, [x10]
	b.lo	LBB2_714
; %bb.372:                              ; %.lr.ph152.preheader.i.i
	lsr	x12, x9, #1
	cmp	x9, #48
	b.lo	LBB2_711
; %bb.373:                              ; %vector.scevcheck774
	sub	x13, x12, #1
	sub	x15, x6, #8
	lsl	x14, x13, #3
	sub	x16, x15, x14
	cmp	x16, x15
	b.hi	LBB2_711
; %bb.374:                              ; %vector.scevcheck774
	sub	x15, x11, #8
	sub	x14, x15, x14
	cmp	x14, x15
	b.hi	LBB2_711
; %bb.375:                              ; %vector.scevcheck774
	lsr	x13, x13, #61
	cbnz	x13, LBB2_711
; %bb.376:                              ; %vector.memcheck783
	add	x0, x5, #9
	lsl	x14, x12, #3
	add	x1, x0, x14
	sub	x17, x6, x14
	cmp	x0, x6
	sub	x2, x11, x14
	ccmp	x17, x1, #2, lo
	add	x3, x10, #8
	add	x4, x3, x14
	cset	w13, lo
	cmp	x0, x11
	ccmp	x2, x1, #2, lo
	cset	w14, lo
	cmp	x3, x6
	ccmp	x17, x4, #2, lo
	cset	w15, lo
	cmp	x3, x11
	ccmp	x2, x4, #2, lo
	cset	w16, lo
	cmp	x17, x11
	ccmp	x2, x6, #2, lo
	cset	w17, lo
	cmp	x3, x1
	ccmp	x0, x4, #2, lo
	b.lo	LBB2_711
; %bb.377:                              ; %vector.memcheck783
	tbnz	w13, #0, LBB2_711
; %bb.378:                              ; %vector.memcheck783
	tbnz	w14, #0, LBB2_711
; %bb.379:                              ; %vector.memcheck783
	tbnz	w15, #0, LBB2_711
; %bb.380:                              ; %vector.memcheck783
	tbnz	w16, #0, LBB2_711
; %bb.381:                              ; %vector.memcheck783
	tbnz	w17, #0, LBB2_711
; %bb.382:                              ; %vector.ph816
	and	x16, x12, #0x7ffffffffffffffe
	ubfx	x9, x9, #1, #1
	lsl	x15, x16, #3
	add	x17, x5, #9
	add	x8, x8, x15
	sub	x13, x11, x15
	add	x14, x10, x15
	sub	x15, x6, x15
	add	x10, x10, #8
	sub	x0, x6, #16
	sub	x11, x11, #16
	neg	x1, x16
LBB2_383:                               ; %vector.body830
                                        ; =>This Inner Loop Header: Depth=1
	ldr	q0, [x0]
	adds	x1, x1, #2
	ldr	q1, [x17]
	ext.16b	v0, v0, v0, #8
	ext.16b	v1, v1, v1, #8
	str	q0, [x17], #16
	str	q1, [x0], #-16
	ldr	q0, [x10]
	ldr	q1, [x11]
	ext.16b	v0, v0, v0, #8
	ext.16b	v1, v1, v1, #8
	str	q0, [x11], #-16
	str	q1, [x10], #16
	b.ne	LBB2_383
; %bb.384:                              ; %middle.block813
	cmp	x12, x16
	b.ne	LBB2_712
	b	LBB2_714
LBB2_385:
	ldr	x13, [sp, #208]                 ; 8-byte Folded Reload
	sub	x11, x6, x13
	lsr	x8, x11, #4
	lsl	x9, x8, #3
	add	x10, x13, x9
	sub	x9, x6, x9
	tbnz	w11, #4, LBB2_387
; %bb.386:
	ldr	x11, [x9]
	sub	x8, x8, #1
	ldr	x12, [x10]
	str	x11, [x10], #-8
	str	x12, [x9], #8
LBB2_387:                               ; %._crit_edge.i350.i.i
	ldr	x11, [x6]
	cmp	x8, #2
	ldr	x12, [x13]
	str	x11, [x13]
	str	x12, [x6]
	ldr	x11, [x9]
	ldr	x12, [x10]
	str	x11, [x10]
	str	x12, [x9]
	b.lo	LBB2_1049
; %bb.388:                              ; %.lr.ph146.preheader.i.i
	lsr	x11, x8, #1
	cmp	x8, #48
	b.hs	LBB2_929
; %bb.389:
	ldr	x12, [sp, #208]                 ; 8-byte Folded Reload
	mov	x8, x11
	b	LBB2_945
LBB2_390:                               ; %._crit_edge.i.i.i
	neg	x8, x28
	str	x8, [sp, #288]                  ; 8-byte Folded Spill
LBB2_391:
	mov	x22, xzr
	mov	x23, xzr
	lsr	x24, x20, #1
LBB2_392:                               ; =>This Inner Loop Header: Depth=1
	add	x21, x10, x22
	add	x0, sp, #1, lsl #12             ; =4096
	ldr	x8, [sp, #344]                  ; 8-byte Folded Reload
	mov	x25, x26
	add	x27, x26, x22
	add	x0, x0, #688
	mov	x1, x21
	ldr	x26, [sp, #264]                 ; 8-byte Folded Reload
	add	x20, x8, x23
	add	x28, x19, x23
	blr	x26
	mov	x0, x21
	mov	x1, x20
	blr	x26
	add	x1, sp, #1, lsl #12             ; =4096
	mov	x0, x20
	add	x1, x1, #688
	blr	x26
	add	x0, sp, #1, lsl #12             ; =4096
	mov	x1, x28
	add	x0, x0, #784
	blr	x26
	mov	x0, x28
	mov	x1, x27
	blr	x26
	add	x1, sp, #1, lsl #12             ; =4096
	mov	x0, x27
	add	x1, x1, #784
	blr	x26
	cbz	x24, LBB2_394
; %bb.393:                              ;   in Loop: Header=BB2_392 Depth=1
	ldr	x8, [sp, #288]                  ; 8-byte Folded Reload
	sub	x24, x24, #1
	ldr	x10, [sp, #240]                 ; 8-byte Folded Reload
	mov	x26, x25
	add	x23, x23, x8
	ldr	x8, [sp, #352]                  ; 8-byte Folded Reload
	add	x22, x22, x8
	b	LBB2_392
LBB2_394:                               ; %sort.quad_reversal.exit.i.i
	str	xzr, [sp, #216]                 ; 8-byte Folded Spill
LBB2_395:                               ; %sort.quad_reversal.exit399.i.i
	ldp	x28, x24, [sp, #352]            ; 16-byte Folded Reload
	str	xzr, [sp, #224]                 ; 8-byte Folded Spill
	ldp	x22, x0, [sp, #248]             ; 16-byte Folded Reload
	ldp	x21, x25, [sp, #304]            ; 16-byte Folded Reload
	ldr	x27, [sp, #168]                 ; 8-byte Folded Reload
	b	LBB2_441
LBB2_396:                               ; %._crit_edge.i.i.i39
	neg	x8, x28
	str	x8, [sp, #288]                  ; 8-byte Folded Spill
LBB2_397:
	mov	x22, xzr
	mov	x23, xzr
	lsr	x24, x20, #1
LBB2_398:                               ; =>This Inner Loop Header: Depth=1
	add	x20, x10, x22
	add	x0, sp, #1, lsl #12             ; =4096
	ldr	x8, [sp, #320]                  ; 8-byte Folded Reload
	mov	x25, x26
	add	x27, x26, x22
	add	x0, x0, #688
	mov	x1, x20
	ldr	x26, [sp, #264]                 ; 8-byte Folded Reload
	add	x21, x8, x23
	add	x28, x19, x23
	blr	x26
	mov	x0, x20
	mov	x1, x21
	blr	x26
	add	x1, sp, #1, lsl #12             ; =4096
	mov	x0, x21
	add	x1, x1, #688
	blr	x26
	add	x0, sp, #1, lsl #12             ; =4096
	mov	x1, x28
	add	x0, x0, #784
	blr	x26
	mov	x0, x28
	mov	x1, x27
	blr	x26
	add	x1, sp, #1, lsl #12             ; =4096
	mov	x0, x27
	add	x1, x1, #784
	blr	x26
	cbz	x24, LBB2_400
; %bb.399:                              ;   in Loop: Header=BB2_398 Depth=1
	ldr	x8, [sp, #288]                  ; 8-byte Folded Reload
	sub	x24, x24, #1
	ldr	x10, [sp, #240]                 ; 8-byte Folded Reload
	mov	x26, x25
	add	x23, x23, x8
	ldr	x8, [sp, #352]                  ; 8-byte Folded Reload
	add	x22, x22, x8
	b	LBB2_398
LBB2_400:                               ; %sort.quad_reversal.exit.i.i49
	ldp	x28, x24, [sp, #352]            ; 16-byte Folded Reload
	mov	x0, xzr
	mov	x23, xzr
	ldp	x22, x11, [sp, #304]            ; 16-byte Folded Reload
	ldr	x12, [sp, #168]                 ; 8-byte Folded Reload
	ldr	x21, [sp, #344]                 ; 8-byte Folded Reload
	ldr	x20, [sp, #256]                 ; 8-byte Folded Reload
	b	LBB2_513
LBB2_401:                               ; %._crit_edge.i293.i.i
	neg	x8, x28
	str	x8, [sp, #272]                  ; 8-byte Folded Spill
LBB2_402:
	mov	x23, xzr
	mov	x24, xzr
	lsr	x26, x20, #1
	ldr	x27, [sp, #264]                 ; 8-byte Folded Reload
LBB2_403:                               ; =>This Inner Loop Header: Depth=1
	ldr	x8, [sp, #280]                  ; 8-byte Folded Reload
	add	x0, sp, #1, lsl #12             ; =4096
	add	x0, x0, #688
	add	x20, x21, x24
	mov	x22, x19
	add	x21, x19, x23
	add	x28, x8, x23
	mov	x19, x25
	mov	x1, x28
	add	x25, x25, x24
	blr	x27
	mov	x0, x28
	mov	x1, x20
	blr	x27
	add	x1, sp, #1, lsl #12             ; =4096
	mov	x0, x20
	add	x1, x1, #688
	blr	x27
	add	x0, sp, #1, lsl #12             ; =4096
	mov	x1, x25
	add	x0, x0, #784
	blr	x27
	mov	x0, x25
	mov	x1, x21
	blr	x27
	add	x1, sp, #1, lsl #12             ; =4096
	mov	x0, x21
	add	x1, x1, #784
	blr	x27
	cbz	x26, LBB2_405
; %bb.404:                              ;   in Loop: Header=BB2_403 Depth=1
	ldr	x8, [sp, #272]                  ; 8-byte Folded Reload
	sub	x26, x26, #1
	ldr	x21, [sp, #304]                 ; 8-byte Folded Reload
	mov	x25, x19
	mov	x19, x22
	add	x24, x24, x8
	ldr	x8, [sp, #352]                  ; 8-byte Folded Reload
	add	x23, x23, x8
	b	LBB2_403
LBB2_405:                               ; %sort.quad_reversal.exit303.i.i
	ldp	x28, x24, [sp, #352]            ; 16-byte Folded Reload
	stp	xzr, xzr, [sp, #224]            ; 16-byte Folded Spill
	ldp	x22, x0, [sp, #248]             ; 16-byte Folded Reload
	ldp	x21, x25, [sp, #304]            ; 16-byte Folded Reload
	ldr	x27, [sp, #168]                 ; 8-byte Folded Reload
	b	LBB2_428
LBB2_406:                               ; %._crit_edge.i305.i.i
	neg	x8, x28
	str	x8, [sp, #296]                  ; 8-byte Folded Spill
LBB2_407:
	mov	x22, xzr
	mov	x23, xzr
	lsr	x24, x20, #1
LBB2_408:                               ; =>This Inner Loop Header: Depth=1
	add	x28, x10, x22
	add	x0, sp, #1, lsl #12             ; =4096
	add	x20, x21, x23
	mov	x27, x25
	add	x21, x25, x22
	mov	x19, x26
	add	x25, x26, x23
	add	x0, x0, #688
	mov	x1, x28
	ldr	x26, [sp, #264]                 ; 8-byte Folded Reload
	blr	x26
	mov	x0, x28
	mov	x1, x20
	blr	x26
	add	x1, sp, #1, lsl #12             ; =4096
	mov	x0, x20
	add	x1, x1, #688
	blr	x26
	add	x0, sp, #1, lsl #12             ; =4096
	mov	x1, x25
	add	x0, x0, #784
	blr	x26
	mov	x0, x25
	mov	x1, x21
	blr	x26
	add	x1, sp, #1, lsl #12             ; =4096
	mov	x0, x21
	add	x1, x1, #784
	blr	x26
	cbz	x24, LBB2_410
; %bb.409:                              ;   in Loop: Header=BB2_408 Depth=1
	ldp	x8, x21, [sp, #296]             ; 16-byte Folded Reload
	sub	x24, x24, #1
	mov	x25, x27
	ldr	x10, [sp, #240]                 ; 8-byte Folded Reload
	mov	x26, x19
	add	x23, x23, x8
	ldr	x8, [sp, #352]                  ; 8-byte Folded Reload
	add	x22, x22, x8
	b	LBB2_408
LBB2_410:                               ; %sort.quad_reversal.exit315.i.i
	ldp	x28, x24, [sp, #352]            ; 16-byte Folded Reload
	mov	x10, xzr
	stp	xzr, xzr, [sp, #224]            ; 16-byte Folded Spill
	ldp	x22, x0, [sp, #248]             ; 16-byte Folded Reload
	ldr	x27, [sp, #168]                 ; 8-byte Folded Reload
	ldr	x25, [sp, #312]                 ; 8-byte Folded Reload
	b	LBB2_451
LBB2_411:                               ; %._crit_edge.i317.i.i
	neg	x8, x28
	str	x8, [sp, #272]                  ; 8-byte Folded Spill
LBB2_412:
	mov	x23, xzr
	mov	x24, xzr
	lsr	x26, x20, #1
LBB2_413:                               ; =>This Inner Loop Header: Depth=1
	ldr	x8, [sp, #280]                  ; 8-byte Folded Reload
	add	x0, sp, #1, lsl #12             ; =4096
	add	x20, x25, x24
	mov	x22, x19
	add	x21, x19, x23
	mov	x19, x27
	add	x28, x8, x23
	add	x25, x27, x24
	add	x0, x0, #688
	mov	x1, x28
	ldr	x27, [sp, #264]                 ; 8-byte Folded Reload
	blr	x27
	mov	x0, x28
	mov	x1, x20
	blr	x27
	add	x1, sp, #1, lsl #12             ; =4096
	mov	x0, x20
	add	x1, x1, #688
	blr	x27
	add	x0, sp, #1, lsl #12             ; =4096
	mov	x1, x25
	add	x0, x0, #784
	blr	x27
	mov	x0, x25
	mov	x1, x21
	blr	x27
	add	x1, sp, #1, lsl #12             ; =4096
	mov	x0, x21
	add	x1, x1, #784
	blr	x27
	cbz	x26, LBB2_415
; %bb.414:                              ;   in Loop: Header=BB2_413 Depth=1
	ldr	x8, [sp, #272]                  ; 8-byte Folded Reload
	sub	x26, x26, #1
	ldr	x25, [sp, #312]                 ; 8-byte Folded Reload
	mov	x27, x19
	mov	x19, x22
	add	x24, x24, x8
	ldr	x8, [sp, #352]                  ; 8-byte Folded Reload
	add	x23, x23, x8
	b	LBB2_413
LBB2_415:                               ; %sort.quad_reversal.exit327.i.i
	mov	x0, xzr
	str	xzr, [sp, #232]                 ; 8-byte Folded Spill
	b	LBB2_427
LBB2_416:                               ; %._crit_edge.i329.i.i
	neg	x8, x28
	str	x8, [sp, #336]                  ; 8-byte Folded Spill
LBB2_417:
	mov	x23, xzr
	mov	x24, xzr
	lsr	x26, x20, #1
	ldr	x8, [sp, #344]                  ; 8-byte Folded Reload
	ldr	x27, [sp, #264]                 ; 8-byte Folded Reload
LBB2_418:                               ; =>This Inner Loop Header: Depth=1
	add	x28, x9, x23
	add	x0, sp, #1, lsl #12             ; =4096
	add	x0, x0, #688
	mov	x1, x28
	add	x20, x8, x24
	mov	x22, x19
	add	x21, x19, x23
	mov	x19, x25
	add	x25, x25, x24
	blr	x27
	mov	x0, x28
	mov	x1, x20
	blr	x27
	add	x1, sp, #1, lsl #12             ; =4096
	mov	x0, x20
	add	x1, x1, #688
	blr	x27
	add	x0, sp, #1, lsl #12             ; =4096
	mov	x1, x25
	add	x0, x0, #784
	blr	x27
	mov	x0, x25
	mov	x1, x21
	blr	x27
	add	x1, sp, #1, lsl #12             ; =4096
	mov	x0, x21
	add	x1, x1, #784
	blr	x27
	cbz	x26, LBB2_420
; %bb.419:                              ;   in Loop: Header=BB2_418 Depth=1
	ldr	x8, [sp, #336]                  ; 8-byte Folded Reload
	sub	x26, x26, #1
	ldr	x9, [sp, #240]                  ; 8-byte Folded Reload
	mov	x25, x19
	mov	x19, x22
	add	x24, x24, x8
	ldr	x8, [sp, #352]                  ; 8-byte Folded Reload
	add	x23, x23, x8
	ldr	x8, [sp, #344]                  ; 8-byte Folded Reload
	b	LBB2_418
LBB2_420:                               ; %sort.quad_reversal.exit339.i.i
	ldp	x8, x21, [sp, #344]             ; 16-byte Folded Reload
	ldr	x25, [sp, #312]                 ; 8-byte Folded Reload
	ldr	x9, [sp, #296]                  ; 8-byte Folded Reload
	add	x10, x8, #1
	sub	x8, x25, x10
	udiv	x20, x8, x9
	str	x10, [sp, #336]                 ; 8-byte Folded Spill
	mul	x8, x20, x21
	add	x27, x10, x8
	sub	x22, x25, x8
	tbnz	w20, #0, LBB2_537
; %bb.421:
	add	x0, sp, #1, lsl #12             ; =4096
	mov	x1, x27
	add	x0, x0, #784
	ldr	x23, [sp, #264]                 ; 8-byte Folded Reload
	blr	x23
	mov	x0, x27
	mov	x1, x22
	blr	x23
	add	x1, sp, #1, lsl #12             ; =4096
	neg	x8, x21
	add	x1, x1, #784
	mov	x0, x22
	sub	x27, x27, x21
	str	x8, [sp, #296]                  ; 8-byte Folded Spill
	blr	x23
	add	x22, x22, x21
	sub	x20, x20, #1
	b	LBB2_538
LBB2_422:                               ; %._crit_edge.i353.i.i
	neg	x8, x28
	str	x8, [sp, #272]                  ; 8-byte Folded Spill
LBB2_423:
	mov	x23, xzr
	mov	x24, xzr
	lsr	x26, x20, #1
LBB2_424:                               ; =>This Inner Loop Header: Depth=1
	ldr	x8, [sp, #280]                  ; 8-byte Folded Reload
	add	x0, sp, #1, lsl #12             ; =4096
	add	x20, x25, x24
	mov	x22, x19
	add	x21, x19, x23
	mov	x19, x27
	add	x28, x8, x23
	add	x25, x27, x24
	add	x0, x0, #688
	mov	x1, x28
	ldr	x27, [sp, #264]                 ; 8-byte Folded Reload
	blr	x27
	mov	x0, x28
	mov	x1, x20
	blr	x27
	add	x1, sp, #1, lsl #12             ; =4096
	mov	x0, x20
	add	x1, x1, #688
	blr	x27
	add	x0, sp, #1, lsl #12             ; =4096
	mov	x1, x25
	add	x0, x0, #784
	blr	x27
	mov	x0, x25
	mov	x1, x21
	blr	x27
	add	x1, sp, #1, lsl #12             ; =4096
	mov	x0, x21
	add	x1, x1, #784
	blr	x27
	cbz	x26, LBB2_426
; %bb.425:                              ;   in Loop: Header=BB2_424 Depth=1
	ldr	x8, [sp, #272]                  ; 8-byte Folded Reload
	sub	x26, x26, #1
	ldr	x25, [sp, #312]                 ; 8-byte Folded Reload
	mov	x27, x19
	mov	x19, x22
	add	x24, x24, x8
	ldr	x8, [sp, #352]                  ; 8-byte Folded Reload
	add	x23, x23, x8
	b	LBB2_424
LBB2_426:                               ; %sort.quad_reversal.exit363.i.i
	mov	x0, xzr
	stp	xzr, xzr, [sp, #224]            ; 16-byte Folded Spill
LBB2_427:
	ldp	x28, x24, [sp, #352]            ; 16-byte Folded Reload
	ldp	x21, x25, [sp, #304]            ; 16-byte Folded Reload
	ldr	x27, [sp, #168]                 ; 8-byte Folded Reload
	ldr	x22, [sp, #248]                 ; 8-byte Folded Reload
LBB2_428:
	ldr	x8, [sp, #216]                  ; 8-byte Folded Reload
	str	x0, [sp, #256]                  ; 8-byte Folded Spill
	cbz	x8, LBB2_437
; %bb.429:
	ldr	x8, [sp, #32]                   ; 8-byte Folded Reload
	ldr	x10, [sp, #240]                 ; 8-byte Folded Reload
	cmp	x8, #1
	b.ne	LBB2_437
; %bb.430:
	ldr	x11, [sp, #320]                 ; 8-byte Folded Reload
	lsl	x9, x28, #1
	mov	x12, x28
	sub	x8, x11, x10
	udiv	x20, x8, x9
	mul	x8, x20, x28
	add	x26, x10, x8
	sub	x25, x11, x8
	tbnz	w20, #0, LBB2_432
; %bb.431:
	add	x0, sp, #1, lsl #12             ; =4096
	mov	x1, x26
	add	x0, x0, #784
	ldr	x21, [sp, #264]                 ; 8-byte Folded Reload
	blr	x21
	mov	x0, x26
	mov	x1, x25
	blr	x21
	add	x1, sp, #1, lsl #12             ; =4096
	neg	x8, x28
	add	x1, x1, #784
	mov	x0, x25
	sub	x26, x26, x28
	str	x8, [sp, #280]                  ; 8-byte Folded Spill
	blr	x21
	ldr	x10, [sp, #240]                 ; 8-byte Folded Reload
	add	x25, x25, x28
	sub	x20, x20, #1
	b	LBB2_433
LBB2_432:                               ; %._crit_edge.i377.i.i
	neg	x8, x28
	str	x8, [sp, #280]                  ; 8-byte Folded Spill
LBB2_433:
	mov	x22, xzr
	mov	x23, xzr
	lsr	x24, x20, #1
LBB2_434:                               ; =>This Inner Loop Header: Depth=1
	add	x28, x10, x22
	add	x0, sp, #1, lsl #12             ; =4096
	ldr	x8, [sp, #320]                  ; 8-byte Folded Reload
	mov	x27, x25
	add	x21, x25, x22
	mov	x19, x26
	add	x25, x26, x23
	add	x0, x0, #688
	mov	x1, x28
	ldr	x26, [sp, #264]                 ; 8-byte Folded Reload
	add	x20, x8, x23
	blr	x26
	mov	x0, x28
	mov	x1, x20
	blr	x26
	add	x1, sp, #1, lsl #12             ; =4096
	mov	x0, x20
	add	x1, x1, #688
	blr	x26
	add	x0, sp, #1, lsl #12             ; =4096
	mov	x1, x25
	add	x0, x0, #784
	blr	x26
	mov	x0, x25
	mov	x1, x21
	blr	x26
	add	x1, sp, #1, lsl #12             ; =4096
	mov	x0, x21
	add	x1, x1, #784
	blr	x26
	cbz	x24, LBB2_436
; %bb.435:                              ;   in Loop: Header=BB2_434 Depth=1
	ldr	x8, [sp, #280]                  ; 8-byte Folded Reload
	sub	x24, x24, #1
	ldr	x10, [sp, #240]                 ; 8-byte Folded Reload
	mov	x25, x27
	mov	x26, x19
	add	x23, x23, x8
	ldr	x8, [sp, #352]                  ; 8-byte Folded Reload
	add	x22, x22, x8
	b	LBB2_434
LBB2_436:                               ; %sort.quad_reversal.exit387.i.i
	ldp	x28, x24, [sp, #352]            ; 16-byte Folded Reload
	str	xzr, [sp, #216]                 ; 8-byte Folded Spill
	ldp	x22, x0, [sp, #248]             ; 16-byte Folded Reload
	ldp	x21, x25, [sp, #304]            ; 16-byte Folded Reload
	ldr	x27, [sp, #168]                 ; 8-byte Folded Reload
LBB2_437:
	ldr	x8, [sp, #40]                   ; 8-byte Folded Reload
	ldr	x10, [sp, #344]                 ; 8-byte Folded Reload
	cmp	x8, #1
	b.ne	LBB2_441
; %bb.438:
	ldr	x8, [sp, #224]                  ; 8-byte Folded Reload
	cbz	x8, LBB2_441
; %bb.439:
	ldr	x11, [sp, #288]                 ; 8-byte Folded Reload
	lsl	x9, x28, #1
	mov	x12, x28
	sub	x8, x10, x11
	udiv	x20, x8, x9
	mul	x8, x20, x28
	add	x26, x11, x8
	sub	x25, x10, x8
	tbnz	w20, #0, LBB2_460
; %bb.440:
	add	x0, sp, #1, lsl #12             ; =4096
	mov	x1, x26
	add	x0, x0, #784
	ldr	x21, [sp, #264]                 ; 8-byte Folded Reload
	blr	x21
	mov	x0, x26
	mov	x1, x25
	blr	x21
	add	x1, sp, #1, lsl #12             ; =4096
	neg	x8, x28
	add	x1, x1, #784
	mov	x0, x25
	sub	x26, x26, x28
	str	x8, [sp, #280]                  ; 8-byte Folded Spill
	blr	x21
	add	x25, x25, x28
	sub	x20, x20, #1
	b	LBB2_461
LBB2_441:                               ; %.thread444.i.i
	ldr	x8, [sp, #144]                  ; 8-byte Folded Reload
	cmp	x8, #1
	b.ne	LBB2_450
; %bb.442:                              ; %.thread444.i.i
	ldr	x8, [sp, #232]                  ; 8-byte Folded Reload
	cbz	x8, LBB2_450
; %bb.443:
	ldr	x10, [sp, #296]                 ; 8-byte Folded Reload
	lsl	x9, x28, #1
	mov	x11, x28
	str	x0, [sp, #256]                  ; 8-byte Folded Spill
	sub	x8, x21, x10
	udiv	x20, x8, x9
	mul	x8, x20, x28
	add	x19, x10, x8
	sub	x26, x21, x8
	tbnz	w20, #0, LBB2_445
; %bb.444:
	add	x0, sp, #1, lsl #12             ; =4096
	mov	x1, x19
	add	x0, x0, #784
	ldr	x22, [sp, #264]                 ; 8-byte Folded Reload
	blr	x22
	mov	x0, x19
	mov	x1, x26
	blr	x22
	add	x1, sp, #1, lsl #12             ; =4096
	neg	x8, x28
	add	x1, x1, #784
	mov	x0, x26
	sub	x19, x19, x28
	str	x8, [sp, #288]                  ; 8-byte Folded Spill
	blr	x22
	add	x26, x26, x28
	sub	x20, x20, #1
	b	LBB2_446
LBB2_445:                               ; %._crit_edge.i401.i.i
	neg	x8, x28
	str	x8, [sp, #288]                  ; 8-byte Folded Spill
LBB2_446:
	mov	x22, xzr
	mov	x23, xzr
	lsr	x24, x20, #1
LBB2_447:                               ; =>This Inner Loop Header: Depth=1
	ldr	x8, [sp, #296]                  ; 8-byte Folded Reload
	add	x0, sp, #1, lsl #12             ; =4096
	mov	x25, x26
	add	x27, x26, x22
	add	x0, x0, #688
	ldr	x26, [sp, #264]                 ; 8-byte Folded Reload
	add	x20, x8, x22
	add	x21, x21, x23
	mov	x1, x20
	add	x28, x19, x23
	blr	x26
	mov	x0, x20
	mov	x1, x21
	blr	x26
	add	x1, sp, #1, lsl #12             ; =4096
	mov	x0, x21
	add	x1, x1, #688
	blr	x26
	add	x0, sp, #1, lsl #12             ; =4096
	mov	x1, x28
	add	x0, x0, #784
	blr	x26
	mov	x0, x28
	mov	x1, x27
	blr	x26
	add	x1, sp, #1, lsl #12             ; =4096
	mov	x0, x27
	add	x1, x1, #784
	blr	x26
	cbz	x24, LBB2_449
; %bb.448:                              ;   in Loop: Header=BB2_447 Depth=1
	ldr	x8, [sp, #288]                  ; 8-byte Folded Reload
	sub	x24, x24, #1
	ldr	x21, [sp, #304]                 ; 8-byte Folded Reload
	mov	x26, x25
	add	x23, x23, x8
	ldr	x8, [sp, #352]                  ; 8-byte Folded Reload
	add	x22, x22, x8
	b	LBB2_447
LBB2_449:                               ; %sort.quad_reversal.exit411.i.i
	ldp	x28, x24, [sp, #352]            ; 16-byte Folded Reload
	str	xzr, [sp, #232]                 ; 8-byte Folded Spill
	ldp	x22, x0, [sp, #248]             ; 16-byte Folded Reload
	ldr	x27, [sp, #168]                 ; 8-byte Folded Reload
	ldr	x25, [sp, #312]                 ; 8-byte Folded Reload
LBB2_450:                               ; %.thread444.thread.i.i
	ldr	x10, [sp, #216]                 ; 8-byte Folded Reload
LBB2_451:                               ; %.thread444.thread.i.i
	ldr	x8, [sp, #176]                  ; 8-byte Folded Reload
	str	x10, [sp, #216]                 ; 8-byte Folded Spill
	cmp	x8, #1
	b.ne	LBB2_543
; %bb.452:                              ; %.thread444.thread.i.i
	cbz	x0, LBB2_543
; %bb.453:
	ldr	x11, [sp, #336]                 ; 8-byte Folded Reload
	lsl	x9, x28, #1
	mov	x12, x28
	sub	x8, x25, x11
	udiv	x20, x8, x9
	mul	x8, x20, x28
	add	x19, x11, x8
	sub	x26, x25, x8
	tbnz	w20, #0, LBB2_455
; %bb.454:
	add	x0, sp, #1, lsl #12             ; =4096
	mov	x1, x19
	add	x0, x0, #784
	ldr	x21, [sp, #264]                 ; 8-byte Folded Reload
	blr	x21
	mov	x0, x19
	mov	x1, x26
	blr	x21
	add	x1, sp, #1, lsl #12             ; =4096
	neg	x8, x28
	add	x1, x1, #784
	mov	x0, x26
	sub	x19, x19, x28
	str	x8, [sp, #296]                  ; 8-byte Folded Spill
	blr	x21
	add	x26, x26, x28
	sub	x20, x20, #1
	b	LBB2_456
LBB2_455:                               ; %._crit_edge.i413.i.i
	neg	x8, x28
	str	x8, [sp, #296]                  ; 8-byte Folded Spill
LBB2_456:
	mov	x22, xzr
	mov	x23, xzr
	lsr	x24, x20, #1
LBB2_457:                               ; =>This Inner Loop Header: Depth=1
	ldr	x8, [sp, #336]                  ; 8-byte Folded Reload
	add	x0, sp, #1, lsl #12             ; =4096
	add	x21, x25, x23
	mov	x27, x26
	add	x25, x26, x22
	add	x0, x0, #688
	add	x20, x8, x22
	ldr	x26, [sp, #264]                 ; 8-byte Folded Reload
	mov	x1, x20
	add	x28, x19, x23
	blr	x26
	mov	x0, x20
	mov	x1, x21
	blr	x26
	add	x1, sp, #1, lsl #12             ; =4096
	mov	x0, x21
	add	x1, x1, #688
	blr	x26
	add	x0, sp, #1, lsl #12             ; =4096
	mov	x1, x28
	add	x0, x0, #784
	blr	x26
	mov	x0, x28
	mov	x1, x25
	blr	x26
	add	x1, sp, #1, lsl #12             ; =4096
	mov	x0, x25
	add	x1, x1, #784
	blr	x26
	cbz	x24, LBB2_459
; %bb.458:                              ;   in Loop: Header=BB2_457 Depth=1
	ldr	x8, [sp, #296]                  ; 8-byte Folded Reload
	sub	x24, x24, #1
	ldr	x25, [sp, #312]                 ; 8-byte Folded Reload
	mov	x26, x27
	add	x23, x23, x8
	ldr	x8, [sp, #352]                  ; 8-byte Folded Reload
	add	x22, x22, x8
	b	LBB2_457
LBB2_459:                               ; %sort.quad_reversal.exit423.i.i
	mov	x0, xzr
	b	LBB2_542
LBB2_460:                               ; %._crit_edge.i389.i.i
	neg	x8, x28
	str	x8, [sp, #280]                  ; 8-byte Folded Spill
LBB2_461:
	mov	x22, xzr
	mov	x23, xzr
	lsr	x24, x20, #1
LBB2_462:                               ; =>This Inner Loop Header: Depth=1
	ldr	x8, [sp, #344]                  ; 8-byte Folded Reload
	add	x0, sp, #1, lsl #12             ; =4096
	mov	x27, x25
	add	x21, x25, x22
	mov	x19, x26
	add	x25, x26, x23
	add	x20, x8, x23
	ldr	x8, [sp, #288]                  ; 8-byte Folded Reload
	add	x0, x0, #688
	ldr	x26, [sp, #264]                 ; 8-byte Folded Reload
	add	x28, x8, x22
	mov	x1, x28
	blr	x26
	mov	x0, x28
	mov	x1, x20
	blr	x26
	add	x1, sp, #1, lsl #12             ; =4096
	mov	x0, x20
	add	x1, x1, #688
	blr	x26
	add	x0, sp, #1, lsl #12             ; =4096
	mov	x1, x25
	add	x0, x0, #784
	blr	x26
	mov	x0, x25
	mov	x1, x21
	blr	x26
	add	x1, sp, #1, lsl #12             ; =4096
	mov	x0, x21
	add	x1, x1, #784
	blr	x26
	cbz	x24, LBB2_395
; %bb.463:                              ;   in Loop: Header=BB2_462 Depth=1
	ldr	x8, [sp, #280]                  ; 8-byte Folded Reload
	sub	x24, x24, #1
	mov	x25, x27
	mov	x26, x19
	add	x23, x23, x8
	ldr	x8, [sp, #352]                  ; 8-byte Folded Reload
	add	x22, x22, x8
	b	LBB2_462
LBB2_464:                               ; %._crit_edge.i365.i.i
	neg	x8, x28
	str	x8, [sp, #360]                  ; 8-byte Folded Spill
LBB2_465:
	mov	x26, xzr
	mov	x27, xzr
	lsr	x28, x20, #1
	ldr	x19, [sp, #264]                 ; 8-byte Folded Reload
LBB2_466:                               ; =>This Inner Loop Header: Depth=1
	add	x24, x10, x26
	add	x0, sp, #1, lsl #12             ; =4096
	ldr	x8, [sp, #312]                  ; 8-byte Folded Reload
	add	x0, x0, #688
	mov	x1, x24
	mov	x21, x22
	add	x25, x22, x26
	mov	x22, x23
	add	x20, x8, x27
	add	x23, x23, x27
	blr	x19
	mov	x0, x24
	mov	x1, x20
	blr	x19
	add	x1, sp, #1, lsl #12             ; =4096
	mov	x0, x20
	add	x1, x1, #688
	blr	x19
	add	x0, sp, #1, lsl #12             ; =4096
	mov	x1, x23
	add	x0, x0, #784
	blr	x19
	mov	x0, x23
	mov	x1, x25
	blr	x19
	add	x1, sp, #1, lsl #12             ; =4096
	mov	x0, x25
	add	x1, x1, #784
	blr	x19
	cbz	x28, LBB2_916
; %bb.467:                              ;   in Loop: Header=BB2_466 Depth=1
	ldr	x8, [sp, #360]                  ; 8-byte Folded Reload
	sub	x28, x28, #1
	ldr	x10, [sp, #240]                 ; 8-byte Folded Reload
	mov	x23, x22
	mov	x22, x21
	add	x27, x27, x8
	ldr	x8, [sp, #352]                  ; 8-byte Folded Reload
	add	x26, x26, x8
	b	LBB2_466
LBB2_468:                               ; %._crit_edge.i291.i.i
	neg	x8, x28
	str	x8, [sp, #272]                  ; 8-byte Folded Spill
LBB2_469:
	mov	x23, xzr
	mov	x24, xzr
	lsr	x26, x20, #1
LBB2_470:                               ; =>This Inner Loop Header: Depth=1
	ldr	x8, [sp, #280]                  ; 8-byte Folded Reload
	add	x0, sp, #1, lsl #12             ; =4096
	mov	x22, x19
	add	x25, x19, x23
	mov	x19, x27
	add	x28, x27, x24
	add	x20, x8, x23
	add	x0, x0, #688
	mov	x1, x20
	ldr	x27, [sp, #264]                 ; 8-byte Folded Reload
	add	x21, x21, x24
	blr	x27
	mov	x0, x20
	mov	x1, x21
	blr	x27
	add	x1, sp, #1, lsl #12             ; =4096
	mov	x0, x21
	add	x1, x1, #688
	blr	x27
	add	x0, sp, #1, lsl #12             ; =4096
	mov	x1, x28
	add	x0, x0, #784
	blr	x27
	mov	x0, x28
	mov	x1, x25
	blr	x27
	add	x1, sp, #1, lsl #12             ; =4096
	mov	x0, x25
	add	x1, x1, #784
	blr	x27
	cbz	x26, LBB2_472
; %bb.471:                              ;   in Loop: Header=BB2_470 Depth=1
	ldr	x8, [sp, #272]                  ; 8-byte Folded Reload
	sub	x26, x26, #1
	mov	x27, x19
	mov	x19, x22
	add	x24, x24, x8
	ldp	x21, x8, [sp, #344]             ; 16-byte Folded Reload
	add	x23, x23, x8
	b	LBB2_470
LBB2_472:                               ; %sort.quad_reversal.exit301.i.i
	ldp	x28, x24, [sp, #352]            ; 16-byte Folded Reload
	mov	x14, xzr
	mov	x23, xzr
	ldp	x11, x13, [sp, #312]            ; 16-byte Folded Reload
	ldr	x12, [sp, #168]                 ; 8-byte Folded Reload
	ldr	x21, [sp, #344]                 ; 8-byte Folded Reload
	ldr	x22, [sp, #304]                 ; 8-byte Folded Reload
	ldr	x20, [sp, #256]                 ; 8-byte Folded Reload
	b	LBB2_494
LBB2_473:                               ; %._crit_edge.i303.i.i
	neg	x8, x28
	str	x8, [sp, #296]                  ; 8-byte Folded Spill
LBB2_474:
	mov	x22, xzr
	mov	x23, xzr
	lsr	x24, x20, #1
LBB2_475:                               ; =>This Inner Loop Header: Depth=1
	add	x20, x10, x22
	add	x0, sp, #1, lsl #12             ; =4096
	mov	x25, x26
	add	x27, x26, x22
	add	x0, x0, #688
	mov	x1, x20
	ldr	x26, [sp, #264]                 ; 8-byte Folded Reload
	add	x21, x21, x23
	add	x28, x19, x23
	blr	x26
	mov	x0, x20
	mov	x1, x21
	blr	x26
	add	x1, sp, #1, lsl #12             ; =4096
	mov	x0, x21
	add	x1, x1, #688
	blr	x26
	add	x0, sp, #1, lsl #12             ; =4096
	mov	x1, x28
	add	x0, x0, #784
	blr	x26
	mov	x0, x28
	mov	x1, x27
	blr	x26
	add	x1, sp, #1, lsl #12             ; =4096
	mov	x0, x27
	add	x1, x1, #784
	blr	x26
	cbz	x24, LBB2_477
; %bb.476:                              ;   in Loop: Header=BB2_475 Depth=1
	ldr	x8, [sp, #296]                  ; 8-byte Folded Reload
	sub	x24, x24, #1
	ldr	x10, [sp, #240]                 ; 8-byte Folded Reload
	mov	x26, x25
	add	x23, x23, x8
	ldp	x21, x8, [sp, #344]             ; 16-byte Folded Reload
	add	x22, x22, x8
	b	LBB2_475
LBB2_477:                               ; %sort.quad_reversal.exit313.i.i
	ldp	x28, x24, [sp, #352]            ; 16-byte Folded Reload
	mov	x23, xzr
	mov	x0, xzr
	ldp	x22, x11, [sp, #304]            ; 16-byte Folded Reload
	mov	x14, xzr
	b	LBB2_523
LBB2_478:                               ; %._crit_edge.i315.i.i
	neg	x8, x28
	str	x8, [sp, #272]                  ; 8-byte Folded Spill
LBB2_479:
	mov	x23, xzr
	mov	x24, xzr
	lsr	x26, x20, #1
LBB2_480:                               ; =>This Inner Loop Header: Depth=1
	ldr	x8, [sp, #280]                  ; 8-byte Folded Reload
	add	x0, sp, #1, lsl #12             ; =4096
	mov	x22, x19
	add	x25, x19, x23
	mov	x19, x27
	add	x28, x27, x24
	add	x20, x8, x23
	add	x0, x0, #688
	mov	x1, x20
	ldr	x27, [sp, #264]                 ; 8-byte Folded Reload
	add	x21, x11, x24
	blr	x27
	mov	x0, x20
	mov	x1, x21
	blr	x27
	add	x1, sp, #1, lsl #12             ; =4096
	mov	x0, x21
	add	x1, x1, #688
	blr	x27
	add	x0, sp, #1, lsl #12             ; =4096
	mov	x1, x28
	add	x0, x0, #784
	blr	x27
	mov	x0, x28
	mov	x1, x25
	blr	x27
	add	x1, sp, #1, lsl #12             ; =4096
	mov	x0, x25
	add	x1, x1, #784
	blr	x27
	cbz	x26, LBB2_482
; %bb.481:                              ;   in Loop: Header=BB2_480 Depth=1
	ldr	x8, [sp, #272]                  ; 8-byte Folded Reload
	sub	x26, x26, #1
	ldr	x11, [sp, #312]                 ; 8-byte Folded Reload
	mov	x27, x19
	mov	x19, x22
	add	x24, x24, x8
	ldr	x8, [sp, #352]                  ; 8-byte Folded Reload
	add	x23, x23, x8
	b	LBB2_480
LBB2_482:                               ; %sort.quad_reversal.exit325.i.i
	ldp	x28, x24, [sp, #352]            ; 16-byte Folded Reload
	mov	x20, xzr
	mov	x14, xzr
	ldp	x11, x13, [sp, #312]            ; 16-byte Folded Reload
	ldp	x23, x0, [sp, #216]             ; 16-byte Folded Reload
	ldr	x12, [sp, #168]                 ; 8-byte Folded Reload
	ldr	x21, [sp, #344]                 ; 8-byte Folded Reload
	ldr	x22, [sp, #304]                 ; 8-byte Folded Reload
	b	LBB2_495
LBB2_483:                               ; %._crit_edge.i327.i.i
	neg	x8, x28
	str	x8, [sp, #336]                  ; 8-byte Folded Spill
LBB2_484:
	mov	x23, xzr
	mov	x24, xzr
	lsr	x26, x20, #1
LBB2_485:                               ; =>This Inner Loop Header: Depth=1
	add	x20, x9, x23
	add	x0, sp, #1, lsl #12             ; =4096
	ldr	x8, [sp, #320]                  ; 8-byte Folded Reload
	mov	x22, x19
	add	x25, x19, x23
	mov	x19, x27
	add	x28, x27, x24
	add	x0, x0, #688
	mov	x1, x20
	ldr	x27, [sp, #264]                 ; 8-byte Folded Reload
	add	x21, x8, x24
	blr	x27
	mov	x0, x20
	mov	x1, x21
	blr	x27
	add	x1, sp, #1, lsl #12             ; =4096
	mov	x0, x21
	add	x1, x1, #688
	blr	x27
	add	x0, sp, #1, lsl #12             ; =4096
	mov	x1, x28
	add	x0, x0, #784
	blr	x27
	mov	x0, x28
	mov	x1, x25
	blr	x27
	add	x1, sp, #1, lsl #12             ; =4096
	mov	x0, x25
	add	x1, x1, #784
	blr	x27
	cbz	x26, LBB2_487
; %bb.486:                              ;   in Loop: Header=BB2_485 Depth=1
	ldr	x8, [sp, #336]                  ; 8-byte Folded Reload
	sub	x26, x26, #1
	ldr	x9, [sp, #240]                  ; 8-byte Folded Reload
	mov	x27, x19
	mov	x19, x22
	add	x24, x24, x8
	ldr	x8, [sp, #352]                  ; 8-byte Folded Reload
	add	x23, x23, x8
	b	LBB2_485
LBB2_487:                               ; %sort.quad_reversal.exit337.i.i
	ldp	x9, x8, [sp, #312]              ; 16-byte Folded Reload
	ldr	x10, [sp, #296]                 ; 8-byte Folded Reload
	ldr	x21, [sp, #352]                 ; 8-byte Folded Reload
	add	x11, x8, #1
	sub	x8, x9, x11
	udiv	x20, x8, x10
	str	x11, [sp, #336]                 ; 8-byte Folded Spill
	mul	x8, x20, x21
	add	x27, x11, x8
	sub	x22, x9, x8
	tbnz	w20, #0, LBB2_595
; %bb.488:
	add	x0, sp, #1, lsl #12             ; =4096
	mov	x1, x27
	add	x0, x0, #784
	ldr	x23, [sp, #264]                 ; 8-byte Folded Reload
	blr	x23
	mov	x0, x27
	mov	x1, x22
	blr	x23
	add	x1, sp, #1, lsl #12             ; =4096
	neg	x8, x21
	add	x1, x1, #784
	mov	x0, x22
	sub	x27, x27, x21
	str	x8, [sp, #296]                  ; 8-byte Folded Spill
	blr	x23
	ldr	x9, [sp, #312]                  ; 8-byte Folded Reload
	add	x22, x22, x21
	sub	x20, x20, #1
	b	LBB2_596
LBB2_489:                               ; %._crit_edge.i351.i.i
	neg	x8, x28
	str	x8, [sp, #272]                  ; 8-byte Folded Spill
LBB2_490:
	mov	x23, xzr
	mov	x24, xzr
	lsr	x26, x20, #1
LBB2_491:                               ; =>This Inner Loop Header: Depth=1
	ldr	x8, [sp, #280]                  ; 8-byte Folded Reload
	add	x0, sp, #1, lsl #12             ; =4096
	mov	x22, x19
	add	x25, x19, x23
	mov	x19, x27
	add	x28, x27, x24
	add	x20, x8, x23
	add	x0, x0, #688
	mov	x1, x20
	ldr	x27, [sp, #264]                 ; 8-byte Folded Reload
	add	x21, x11, x24
	blr	x27
	mov	x0, x20
	mov	x1, x21
	blr	x27
	add	x1, sp, #1, lsl #12             ; =4096
	mov	x0, x21
	add	x1, x1, #688
	blr	x27
	add	x0, sp, #1, lsl #12             ; =4096
	mov	x1, x28
	add	x0, x0, #784
	blr	x27
	mov	x0, x28
	mov	x1, x25
	blr	x27
	add	x1, sp, #1, lsl #12             ; =4096
	mov	x0, x25
	add	x1, x1, #784
	blr	x27
	cbz	x26, LBB2_493
; %bb.492:                              ;   in Loop: Header=BB2_491 Depth=1
	ldr	x8, [sp, #272]                  ; 8-byte Folded Reload
	sub	x26, x26, #1
	ldr	x11, [sp, #312]                 ; 8-byte Folded Reload
	mov	x27, x19
	mov	x19, x22
	add	x24, x24, x8
	ldr	x8, [sp, #352]                  ; 8-byte Folded Reload
	add	x23, x23, x8
	b	LBB2_491
LBB2_493:                               ; %sort.quad_reversal.exit361.i.i
	ldp	x28, x24, [sp, #352]            ; 16-byte Folded Reload
	mov	x20, xzr
	mov	x14, xzr
	ldp	x11, x13, [sp, #312]            ; 16-byte Folded Reload
	mov	x23, xzr
	ldr	x12, [sp, #168]                 ; 8-byte Folded Reload
	ldr	x21, [sp, #344]                 ; 8-byte Folded Reload
	ldr	x22, [sp, #304]                 ; 8-byte Folded Reload
LBB2_494:
	ldr	x0, [sp, #224]                  ; 8-byte Folded Reload
LBB2_495:
	str	x20, [sp, #256]                 ; 8-byte Folded Spill
	str	x14, [sp, #232]                 ; 8-byte Folded Spill
	cbz	x0, LBB2_504
; %bb.496:
	ldr	x8, [sp, #40]                   ; 8-byte Folded Reload
	ldr	x10, [sp, #240]                 ; 8-byte Folded Reload
	cmp	x8, #1
	b.ne	LBB2_504
; %bb.497:
	sub	x8, x22, x10
	lsl	x9, x28, #1
	mov	x11, x28
	str	x23, [sp, #216]                 ; 8-byte Folded Spill
	udiv	x20, x8, x9
	mul	x8, x20, x28
	add	x24, x10, x8
	sub	x26, x22, x8
	tbnz	w20, #0, LBB2_499
; %bb.498:
	add	x0, sp, #1, lsl #12             ; =4096
	mov	x1, x24
	add	x0, x0, #784
	ldr	x21, [sp, #264]                 ; 8-byte Folded Reload
	blr	x21
	mov	x0, x24
	mov	x1, x26
	blr	x21
	add	x1, sp, #1, lsl #12             ; =4096
	neg	x8, x28
	add	x1, x1, #784
	mov	x0, x26
	sub	x27, x24, x28
	str	x8, [sp, #280]                  ; 8-byte Folded Spill
	blr	x21
	ldr	x10, [sp, #240]                 ; 8-byte Folded Reload
	add	x26, x26, x28
	sub	x20, x20, #1
	b	LBB2_500
LBB2_499:                               ; %._crit_edge.i375.i.i
	neg	x8, x28
	mov	x27, x24
	str	x8, [sp, #280]                  ; 8-byte Folded Spill
LBB2_500:
	mov	x22, xzr
	mov	x23, xzr
	lsr	x24, x20, #1
LBB2_501:                               ; =>This Inner Loop Header: Depth=1
	add	x20, x10, x22
	add	x0, sp, #1, lsl #12             ; =4096
	ldr	x8, [sp, #304]                  ; 8-byte Folded Reload
	mov	x25, x26
	add	x19, x26, x22
	add	x0, x0, #688
	mov	x1, x20
	ldr	x26, [sp, #264]                 ; 8-byte Folded Reload
	add	x21, x8, x23
	add	x28, x27, x23
	blr	x26
	mov	x0, x20
	mov	x1, x21
	blr	x26
	add	x1, sp, #1, lsl #12             ; =4096
	mov	x0, x21
	add	x1, x1, #688
	blr	x26
	add	x0, sp, #1, lsl #12             ; =4096
	mov	x1, x28
	add	x0, x0, #784
	blr	x26
	mov	x0, x28
	mov	x1, x19
	blr	x26
	add	x1, sp, #1, lsl #12             ; =4096
	mov	x0, x19
	add	x1, x1, #784
	blr	x26
	cbz	x24, LBB2_503
; %bb.502:                              ;   in Loop: Header=BB2_501 Depth=1
	ldr	x8, [sp, #280]                  ; 8-byte Folded Reload
	sub	x24, x24, #1
	ldr	x10, [sp, #240]                 ; 8-byte Folded Reload
	mov	x26, x25
	add	x23, x23, x8
	ldr	x8, [sp, #352]                  ; 8-byte Folded Reload
	add	x22, x22, x8
	b	LBB2_501
LBB2_503:                               ; %sort.quad_reversal.exit385.i.i
	ldp	x28, x24, [sp, #352]            ; 16-byte Folded Reload
	mov	x0, xzr
	ldp	x11, x13, [sp, #312]            ; 16-byte Folded Reload
	ldr	x12, [sp, #168]                 ; 8-byte Folded Reload
	ldr	x21, [sp, #344]                 ; 8-byte Folded Reload
	ldr	x22, [sp, #304]                 ; 8-byte Folded Reload
	ldr	x20, [sp, #256]                 ; 8-byte Folded Reload
	ldr	x14, [sp, #232]                 ; 8-byte Folded Reload
	ldr	x23, [sp, #216]                 ; 8-byte Folded Reload
LBB2_504:
	ldr	x8, [sp, #48]                   ; 8-byte Folded Reload
	cmp	x8, #1
	b.ne	LBB2_514
; %bb.505:
	cbz	x23, LBB2_514
; %bb.506:
	ldr	x10, [sp, #288]                 ; 8-byte Folded Reload
	lsl	x9, x28, #1
	mov	x11, x28
	str	x0, [sp, #224]                  ; 8-byte Folded Spill
	sub	x8, x13, x10
	udiv	x20, x8, x9
	mul	x8, x20, x28
	add	x22, x10, x8
	sub	x26, x13, x8
	tbnz	w20, #0, LBB2_508
; %bb.507:
	add	x0, sp, #1, lsl #12             ; =4096
	mov	x1, x22
	add	x0, x0, #784
	ldr	x21, [sp, #264]                 ; 8-byte Folded Reload
	blr	x21
	mov	x0, x22
	mov	x1, x26
	blr	x21
	add	x1, sp, #1, lsl #12             ; =4096
	neg	x8, x28
	add	x1, x1, #784
	mov	x0, x26
	sub	x27, x22, x28
	str	x8, [sp, #280]                  ; 8-byte Folded Spill
	blr	x21
	add	x26, x26, x28
	sub	x20, x20, #1
	b	LBB2_509
LBB2_508:                               ; %._crit_edge.i387.i.i
	neg	x8, x28
	mov	x27, x22
	str	x8, [sp, #280]                  ; 8-byte Folded Spill
LBB2_509:
	mov	x22, xzr
	mov	x23, xzr
	lsr	x24, x20, #1
LBB2_510:                               ; =>This Inner Loop Header: Depth=1
	ldr	x8, [sp, #320]                  ; 8-byte Folded Reload
	add	x0, sp, #1, lsl #12             ; =4096
	mov	x25, x26
	add	x19, x26, x22
	add	x0, x0, #688
	ldr	x26, [sp, #264]                 ; 8-byte Folded Reload
	add	x21, x8, x23
	ldr	x8, [sp, #288]                  ; 8-byte Folded Reload
	add	x28, x27, x23
	add	x20, x8, x22
	mov	x1, x20
	blr	x26
	mov	x0, x20
	mov	x1, x21
	blr	x26
	add	x1, sp, #1, lsl #12             ; =4096
	mov	x0, x21
	add	x1, x1, #688
	blr	x26
	add	x0, sp, #1, lsl #12             ; =4096
	mov	x1, x28
	add	x0, x0, #784
	blr	x26
	mov	x0, x28
	mov	x1, x19
	blr	x26
	add	x1, sp, #1, lsl #12             ; =4096
	mov	x0, x19
	add	x1, x1, #784
	blr	x26
	cbz	x24, LBB2_512
; %bb.511:                              ;   in Loop: Header=BB2_510 Depth=1
	ldr	x8, [sp, #280]                  ; 8-byte Folded Reload
	sub	x24, x24, #1
	mov	x26, x25
	add	x23, x23, x8
	ldr	x8, [sp, #352]                  ; 8-byte Folded Reload
	add	x22, x22, x8
	b	LBB2_510
LBB2_512:                               ; %sort.quad_reversal.exit397.i.i
	ldp	x28, x24, [sp, #352]            ; 16-byte Folded Reload
	mov	x23, xzr
	ldp	x22, x11, [sp, #304]            ; 16-byte Folded Reload
	ldr	x12, [sp, #168]                 ; 8-byte Folded Reload
	ldr	x21, [sp, #344]                 ; 8-byte Folded Reload
	ldr	x20, [sp, #256]                 ; 8-byte Folded Reload
	ldr	x0, [sp, #224]                  ; 8-byte Folded Reload
LBB2_513:                               ; %.thread442.i.i
	ldr	x14, [sp, #232]                 ; 8-byte Folded Reload
LBB2_514:                               ; %.thread442.i.i
	ldr	x8, [sp, #176]                  ; 8-byte Folded Reload
	cmp	x8, #1
	b.ne	LBB2_524
; %bb.515:                              ; %.thread442.i.i
	cbz	x14, LBB2_524
; %bb.516:
	ldr	x10, [sp, #296]                 ; 8-byte Folded Reload
	lsl	x9, x28, #1
	str	x20, [sp, #256]                 ; 8-byte Folded Spill
	mov	x11, x28
	stp	x23, x0, [sp, #216]             ; 16-byte Folded Spill
	sub	x8, x21, x10
	udiv	x20, x8, x9
	mul	x8, x20, x28
	add	x19, x10, x8
	sub	x26, x21, x8
	tbnz	w20, #0, LBB2_518
; %bb.517:
	add	x0, sp, #1, lsl #12             ; =4096
	mov	x1, x19
	add	x0, x0, #784
	ldr	x22, [sp, #264]                 ; 8-byte Folded Reload
	blr	x22
	mov	x0, x19
	mov	x1, x26
	blr	x22
	add	x1, sp, #1, lsl #12             ; =4096
	neg	x8, x28
	add	x1, x1, #784
	mov	x0, x26
	sub	x19, x19, x28
	str	x8, [sp, #288]                  ; 8-byte Folded Spill
	blr	x22
	add	x26, x26, x28
	sub	x20, x20, #1
	b	LBB2_519
LBB2_518:                               ; %._crit_edge.i399.i.i
	neg	x8, x28
	str	x8, [sp, #288]                  ; 8-byte Folded Spill
LBB2_519:
	mov	x22, xzr
	mov	x23, xzr
	lsr	x24, x20, #1
LBB2_520:                               ; =>This Inner Loop Header: Depth=1
	ldr	x8, [sp, #296]                  ; 8-byte Folded Reload
	add	x0, sp, #1, lsl #12             ; =4096
	mov	x25, x26
	add	x27, x26, x22
	add	x0, x0, #688
	ldr	x26, [sp, #264]                 ; 8-byte Folded Reload
	add	x20, x8, x22
	add	x21, x21, x23
	mov	x1, x20
	add	x28, x19, x23
	blr	x26
	mov	x0, x20
	mov	x1, x21
	blr	x26
	add	x1, sp, #1, lsl #12             ; =4096
	mov	x0, x21
	add	x1, x1, #688
	blr	x26
	add	x0, sp, #1, lsl #12             ; =4096
	mov	x1, x28
	add	x0, x0, #784
	blr	x26
	mov	x0, x28
	mov	x1, x27
	blr	x26
	add	x1, sp, #1, lsl #12             ; =4096
	mov	x0, x27
	add	x1, x1, #784
	blr	x26
	cbz	x24, LBB2_522
; %bb.521:                              ;   in Loop: Header=BB2_520 Depth=1
	ldr	x8, [sp, #288]                  ; 8-byte Folded Reload
	sub	x24, x24, #1
	mov	x26, x25
	add	x23, x23, x8
	ldp	x21, x8, [sp, #344]             ; 16-byte Folded Reload
	add	x22, x22, x8
	b	LBB2_520
LBB2_522:                               ; %sort.quad_reversal.exit409.i.i
	ldp	x28, x24, [sp, #352]            ; 16-byte Folded Reload
	mov	x14, xzr
	ldp	x22, x11, [sp, #304]            ; 16-byte Folded Reload
	ldp	x23, x0, [sp, #216]             ; 16-byte Folded Reload
LBB2_523:                               ; %.thread442.thread.i.i
	ldr	x12, [sp, #168]                 ; 8-byte Folded Reload
	ldr	x20, [sp, #256]                 ; 8-byte Folded Reload
LBB2_524:                               ; %.thread442.thread.i.i
	ldr	x8, [sp, #248]                  ; 8-byte Folded Reload
	str	x14, [sp, #232]                 ; 8-byte Folded Spill
	cmp	x8, #1
	b.ne	LBB2_600
; %bb.525:                              ; %.thread442.thread.i.i
	cbz	x20, LBB2_600
; %bb.526:
	ldr	x10, [sp, #336]                 ; 8-byte Folded Reload
	lsl	x9, x28, #1
	mov	x12, x28
	stp	x23, x0, [sp, #216]             ; 16-byte Folded Spill
	sub	x8, x11, x10
	udiv	x20, x8, x9
	mul	x8, x20, x28
	add	x22, x10, x8
	sub	x26, x11, x8
	tbnz	w20, #0, LBB2_528
; %bb.527:
	add	x0, sp, #1, lsl #12             ; =4096
	mov	x1, x22
	add	x0, x0, #784
	ldr	x21, [sp, #264]                 ; 8-byte Folded Reload
	blr	x21
	mov	x0, x22
	mov	x1, x26
	blr	x21
	add	x1, sp, #1, lsl #12             ; =4096
	neg	x8, x28
	add	x1, x1, #784
	mov	x0, x26
	sub	x27, x22, x28
	str	x8, [sp, #296]                  ; 8-byte Folded Spill
	blr	x21
	ldr	x11, [sp, #312]                 ; 8-byte Folded Reload
	add	x26, x26, x28
	sub	x20, x20, #1
	b	LBB2_529
LBB2_528:                               ; %._crit_edge.i411.i.i
	neg	x8, x28
	mov	x27, x22
	str	x8, [sp, #296]                  ; 8-byte Folded Spill
LBB2_529:
	mov	x22, xzr
	mov	x23, xzr
	lsr	x24, x20, #1
LBB2_530:                               ; =>This Inner Loop Header: Depth=1
	ldr	x8, [sp, #336]                  ; 8-byte Folded Reload
	add	x0, sp, #1, lsl #12             ; =4096
	mov	x25, x26
	add	x19, x26, x22
	add	x0, x0, #688
	ldr	x26, [sp, #264]                 ; 8-byte Folded Reload
	add	x20, x8, x22
	add	x21, x11, x23
	mov	x1, x20
	add	x28, x27, x23
	blr	x26
	mov	x0, x20
	mov	x1, x21
	blr	x26
	add	x1, sp, #1, lsl #12             ; =4096
	mov	x0, x21
	add	x1, x1, #688
	blr	x26
	add	x0, sp, #1, lsl #12             ; =4096
	mov	x1, x28
	add	x0, x0, #784
	blr	x26
	mov	x0, x28
	mov	x1, x19
	blr	x26
	add	x1, sp, #1, lsl #12             ; =4096
	mov	x0, x19
	add	x1, x1, #784
	blr	x26
	cbz	x24, LBB2_532
; %bb.531:                              ;   in Loop: Header=BB2_530 Depth=1
	ldr	x8, [sp, #296]                  ; 8-byte Folded Reload
	sub	x24, x24, #1
	ldr	x11, [sp, #312]                 ; 8-byte Folded Reload
	mov	x26, x25
	add	x23, x23, x8
	ldr	x8, [sp, #352]                  ; 8-byte Folded Reload
	add	x22, x22, x8
	b	LBB2_530
LBB2_532:                               ; %sort.quad_reversal.exit421.i.i
	ldp	x28, x24, [sp, #352]            ; 16-byte Folded Reload
	mov	x20, xzr
	ldp	x23, x0, [sp, #216]             ; 16-byte Folded Reload
	ldr	x12, [sp, #168]                 ; 8-byte Folded Reload
	ldr	x22, [sp, #304]                 ; 8-byte Folded Reload
	b	LBB2_600
LBB2_533:                               ; %._crit_edge.i363.i.i
	neg	x8, x28
	str	x8, [sp, #360]                  ; 8-byte Folded Spill
LBB2_534:
	mov	x26, xzr
	mov	x27, xzr
	lsr	x28, x21, #1
	ldr	x19, [sp, #264]                 ; 8-byte Folded Reload
LBB2_535:                               ; =>This Inner Loop Header: Depth=1
	add	x24, x10, x26
	add	x0, sp, #1, lsl #12             ; =4096
	add	x0, x0, #688
	mov	x1, x24
	add	x21, x11, x27
	mov	x25, x20
	add	x22, x20, x26
	mov	x20, x23
	add	x23, x23, x27
	blr	x19
	mov	x0, x24
	mov	x1, x21
	blr	x19
	add	x1, sp, #1, lsl #12             ; =4096
	mov	x0, x21
	add	x1, x1, #688
	blr	x19
	add	x0, sp, #1, lsl #12             ; =4096
	mov	x1, x23
	add	x0, x0, #784
	blr	x19
	mov	x0, x23
	mov	x1, x22
	blr	x19
	add	x1, sp, #1, lsl #12             ; =4096
	mov	x0, x22
	add	x1, x1, #784
	blr	x19
	cbz	x28, LBB2_916
; %bb.536:                              ;   in Loop: Header=BB2_535 Depth=1
	ldr	x8, [sp, #360]                  ; 8-byte Folded Reload
	sub	x28, x28, #1
	ldr	x10, [sp, #240]                 ; 8-byte Folded Reload
	mov	x23, x20
	ldr	x11, [sp, #312]                 ; 8-byte Folded Reload
	mov	x20, x25
	add	x27, x27, x8
	ldr	x8, [sp, #352]                  ; 8-byte Folded Reload
	add	x26, x26, x8
	b	LBB2_535
LBB2_537:                               ; %._crit_edge.i341.i.i
	neg	x8, x21
	str	x8, [sp, #296]                  ; 8-byte Folded Spill
LBB2_538:
	mov	x23, xzr
	mov	x24, xzr
	lsr	x26, x20, #1
LBB2_539:                               ; =>This Inner Loop Header: Depth=1
	ldr	x8, [sp, #336]                  ; 8-byte Folded Reload
	add	x0, sp, #1, lsl #12             ; =4096
	add	x20, x25, x24
	mov	x19, x22
	add	x21, x22, x23
	mov	x22, x27
	add	x28, x8, x23
	add	x25, x27, x24
	add	x0, x0, #688
	mov	x1, x28
	ldr	x27, [sp, #264]                 ; 8-byte Folded Reload
	blr	x27
	mov	x0, x28
	mov	x1, x20
	blr	x27
	add	x1, sp, #1, lsl #12             ; =4096
	mov	x0, x20
	add	x1, x1, #688
	blr	x27
	add	x0, sp, #1, lsl #12             ; =4096
	mov	x1, x25
	add	x0, x0, #784
	blr	x27
	mov	x0, x25
	mov	x1, x21
	blr	x27
	add	x1, sp, #1, lsl #12             ; =4096
	mov	x0, x21
	add	x1, x1, #784
	blr	x27
	cbz	x26, LBB2_541
; %bb.540:                              ;   in Loop: Header=BB2_539 Depth=1
	ldr	x8, [sp, #296]                  ; 8-byte Folded Reload
	sub	x26, x26, #1
	ldr	x25, [sp, #312]                 ; 8-byte Folded Reload
	mov	x27, x22
	mov	x22, x19
	add	x24, x24, x8
	ldr	x8, [sp, #352]                  ; 8-byte Folded Reload
	add	x23, x23, x8
	b	LBB2_539
LBB2_541:                               ; %.thread444.thread.thread.i.i
	mov	x0, xzr
	stp	xzr, xzr, [sp, #224]            ; 16-byte Folded Spill
	str	xzr, [sp, #216]                 ; 8-byte Folded Spill
LBB2_542:
	ldp	x28, x24, [sp, #352]            ; 16-byte Folded Reload
	ldr	x27, [sp, #168]                 ; 8-byte Folded Reload
	ldr	x22, [sp, #248]                 ; 8-byte Folded Reload
LBB2_543:
	ldr	w8, [sp, #184]                  ; 4-byte Folded Reload
	lsr	x9, x27, #9
	ldr	w10, [sp, #192]                 ; 4-byte Folded Reload
	cmp	x9, w8, uxtw
	cset	w8, lo
	cmp	x9, w10, uxtw
	ldr	w10, [sp, #200]                 ; 4-byte Folded Reload
	cset	w19, lo
	cmp	x9, w10, uxtw
	ldr	w10, [sp, #208]                 ; 4-byte Folded Reload
	cset	w25, lo
	cmp	x9, w10, uxtw
	mov	w9, #3
	cset	w21, lo
	movk	w9, #16, lsl #16
	cmp	x27, x9
	b.ls	LBB2_545
; %bb.544:
	mov	w21, #1
	mov	w25, #1
	mov	w19, #1
	mov	w8, #1
LBB2_545:
	lsl	w9, w25, #2
Lloh8:
	adrp	x10, LJTI2_7@PAGE
Lloh9:
	add	x10, x10, LJTI2_7@PAGEOFF
	orr	w9, w9, w19, lsl #1
	orr	w9, w9, w21, lsl #3
	ldr	x23, [sp, #152]                 ; 8-byte Folded Reload
	orr	w9, w9, w8
	ldr	x27, [sp, #328]                 ; 8-byte Folded Reload
	adr	x11, LBB2_546
	ldrh	w12, [x10, x9, lsl #1]
	add	x11, x11, x12, lsl #2
	br	x11
LBB2_546:
	str	x0, [sp, #256]                  ; 8-byte Folded Spill
	cbz	w8, LBB2_550
; %bb.547:
	ldr	x8, [sp, #216]                  ; 8-byte Folded Reload
	cbz	x8, LBB2_553
; %bb.548:
	ldr	x8, [sp, #168]                  ; 8-byte Folded Reload
	cmp	x8, #383
	b.hi	LBB2_551
; %bb.549:
	ldr	x0, [sp, #240]                  ; 8-byte Folded Reload
	mov	x2, x23
	ldr	x1, [sp, #104]                  ; 8-byte Folded Reload
	mov	x3, x27
	mov	x4, x24
	mov	x5, x28
	ldr	x6, [sp, #264]                  ; 8-byte Folded Reload
	mov	x7, x22
	bl	l_sort.tail_swap__anon_14832
	b	LBB2_553
LBB2_550:
	ldr	x8, [sp, #56]                   ; 8-byte Folded Reload
	mov	x1, x23
	ldr	x0, [sp, #240]                  ; 8-byte Folded Reload
	mov	x5, x27
	ldr	x4, [sp, #104]                  ; 8-byte Folded Reload
	mov	x6, x24
	add	x3, x23, x8
	mov	x7, x28
	mov	x2, x0
	ldr	x8, [sp, #264]                  ; 8-byte Folded Reload
	stp	x8, x22, [sp]
	bl	l_sort.flux_partition__anon_14854
	b	LBB2_553
LBB2_551:
	ldr	x0, [sp, #240]                  ; 8-byte Folded Reload
	mov	x2, x27
	ldr	x1, [sp, #104]                  ; 8-byte Folded Reload
	mov	x3, x24
	mov	x4, x28
	ldr	x5, [sp, #264]                  ; 8-byte Folded Reload
	mov	x6, x22
	bl	l_sort.quad_swap__anon_14834
	tbz	w0, #0, LBB2_553
; %bb.552:
	ldp	x20, x8, [sp, #240]             ; 16-byte Folded Reload
	mov	x2, x23
	mov	x4, x27
	ldr	x22, [sp, #168]                 ; 8-byte Folded Reload
	mov	x5, x24
	ldr	x1, [sp, #104]                  ; 8-byte Folded Reload
	mov	x6, x28
	mov	x0, x20
	ldr	x7, [sp, #264]                  ; 8-byte Folded Reload
	mov	x3, x22
	mov	x26, x28
	str	x8, [sp]
	bl	l_sort.quad_merge__anon_14835
	mov	x4, x0
	mov	x0, x20
	ldr	x1, [sp, #104]                  ; 8-byte Folded Reload
	mov	x2, x23
	mov	x3, x22
	ldr	x22, [sp, #248]                 ; 8-byte Folded Reload
	mov	x5, x27
	mov	x6, x24
	mov	x7, x28
	ldr	x8, [sp, #264]                  ; 8-byte Folded Reload
	stp	x8, x22, [sp]
	bl	l_sort.rotate_merge__anon_14836
LBB2_553:                               ; %sort.quadsort_swap__anon_14855.exit433.i.i
	cbz	w19, LBB2_557
; %bb.554:
	ldr	x8, [sp, #224]                  ; 8-byte Folded Reload
	cbz	x8, LBB2_560
; %bb.555:
	ldr	x8, [sp, #320]                  ; 8-byte Folded Reload
	ldr	x1, [sp, #112]                  ; 8-byte Folded Reload
	add	x20, x8, x28
	cmp	x1, #95
	b.hi	LBB2_558
; %bb.556:
	mov	x0, x20
	mov	x2, x23
	mov	x3, x27
	mov	x4, x24
	mov	x5, x28
	ldr	x6, [sp, #264]                  ; 8-byte Folded Reload
	mov	x7, x22
	bl	l_sort.tail_swap__anon_14832
	b	LBB2_560
LBB2_557:
	ldr	x4, [sp, #112]                  ; 8-byte Folded Reload
	mov	x7, x28
	ldr	x8, [sp, #320]                  ; 8-byte Folded Reload
	mov	x1, x23
	mov	x5, x27
	mov	x6, x24
	madd	x3, x4, x28, x23
	add	x0, x8, x28
	ldr	x8, [sp, #264]                  ; 8-byte Folded Reload
	mov	x2, x0
	stp	x8, x22, [sp]
	bl	l_sort.flux_partition__anon_14854
	b	LBB2_560
LBB2_558:
	mov	x0, x20
	mov	x2, x27
	mov	x3, x24
	mov	x4, x28
	ldr	x5, [sp, #264]                  ; 8-byte Folded Reload
	mov	x6, x22
	bl	l_sort.quad_swap__anon_14834
	tbz	w0, #0, LBB2_560
; %bb.559:
	ldr	x19, [sp, #168]                 ; 8-byte Folded Reload
	mov	x0, x20
	ldr	x1, [sp, #112]                  ; 8-byte Folded Reload
	mov	x2, x23
	mov	x4, x27
	mov	x5, x24
	mov	x3, x19
	mov	x6, x28
	ldr	x7, [sp, #264]                  ; 8-byte Folded Reload
	mov	x26, x28
	str	x22, [sp]
	bl	l_sort.quad_merge__anon_14835
	mov	x4, x0
	mov	x0, x20
	ldr	x1, [sp, #112]                  ; 8-byte Folded Reload
	mov	x2, x23
	mov	x3, x19
	mov	x5, x27
	mov	x6, x24
	mov	x7, x28
	ldr	x8, [sp, #264]                  ; 8-byte Folded Reload
	stp	x8, x22, [sp]
	bl	l_sort.rotate_merge__anon_14836
LBB2_560:                               ; %sort.quadsort_swap__anon_14855.exit434.i.i
	cbz	w25, LBB2_564
; %bb.561:
	ldr	x19, [sp, #168]                 ; 8-byte Folded Reload
	ldr	x8, [sp, #232]                  ; 8-byte Folded Reload
	cbz	x8, LBB2_567
; %bb.562:
	ldr	x8, [sp, #344]                  ; 8-byte Folded Reload
	add	x20, x8, x28
	ldr	x8, [sp, #96]                   ; 8-byte Folded Reload
	cmp	x8, #191
	b.hi	LBB2_565
; %bb.563:
	mov	x0, x20
	ldr	x1, [sp, #128]                  ; 8-byte Folded Reload
	mov	x2, x23
	mov	x3, x27
	mov	x4, x24
	mov	x5, x28
	ldr	x6, [sp, #264]                  ; 8-byte Folded Reload
	mov	x7, x22
	bl	l_sort.tail_swap__anon_14832
	b	LBB2_567
LBB2_564:
	ldr	x4, [sp, #128]                  ; 8-byte Folded Reload
	mov	x7, x28
	ldr	x8, [sp, #344]                  ; 8-byte Folded Reload
	mov	x1, x23
	mov	x5, x27
	mov	x6, x24
	madd	x3, x4, x28, x23
	add	x0, x8, x28
	ldr	x8, [sp, #264]                  ; 8-byte Folded Reload
	mov	x2, x0
	stp	x8, x22, [sp]
	bl	l_sort.flux_partition__anon_14854
	ldr	x19, [sp, #168]                 ; 8-byte Folded Reload
	b	LBB2_567
LBB2_565:
	mov	x0, x20
	ldr	x1, [sp, #128]                  ; 8-byte Folded Reload
	mov	x2, x27
	mov	x3, x24
	mov	x4, x28
	ldr	x5, [sp, #264]                  ; 8-byte Folded Reload
	mov	x6, x22
	bl	l_sort.quad_swap__anon_14834
	tbz	w0, #0, LBB2_567
; %bb.566:
	ldr	x25, [sp, #128]                 ; 8-byte Folded Reload
	mov	x0, x20
	mov	x2, x23
	mov	x3, x19
	mov	x4, x27
	mov	x5, x24
	mov	x1, x25
	mov	x6, x28
	ldr	x7, [sp, #264]                  ; 8-byte Folded Reload
	mov	x26, x28
	str	x22, [sp]
	bl	l_sort.quad_merge__anon_14835
	mov	x4, x0
	mov	x0, x20
	mov	x1, x25
	mov	x2, x23
	mov	x3, x19
	mov	x5, x27
	mov	x6, x24
	mov	x7, x28
	ldr	x8, [sp, #264]                  ; 8-byte Folded Reload
	stp	x8, x22, [sp]
	bl	l_sort.rotate_merge__anon_14836
LBB2_567:                               ; %sort.quadsort_swap__anon_14855.exit435.i.i
	cbz	w21, LBB2_571
; %bb.568:
	ldr	x8, [sp, #256]                  ; 8-byte Folded Reload
	mov	x25, x22
	cbz	x8, LBB2_844
LBB2_569:
	ldr	x8, [sp, #304]                  ; 8-byte Folded Reload
	ldr	x1, [sp, #136]                  ; 8-byte Folded Reload
	add	x20, x8, x28
	cmp	x1, #95
	b.hi	LBB2_572
; %bb.570:
	mov	x0, x20
	mov	x2, x23
	mov	x3, x27
	mov	x4, x24
	mov	x5, x28
	ldr	x6, [sp, #264]                  ; 8-byte Folded Reload
	mov	x7, x25
	bl	l_sort.tail_swap__anon_14832
	b	LBB2_844
LBB2_571:
	ldr	x4, [sp, #136]                  ; 8-byte Folded Reload
	mov	x7, x28
	ldr	x8, [sp, #304]                  ; 8-byte Folded Reload
	b	LBB2_841
LBB2_572:
	mov	x0, x20
	mov	x2, x27
	mov	x3, x24
	mov	x4, x28
	ldr	x5, [sp, #264]                  ; 8-byte Folded Reload
	mov	x6, x25
	bl	l_sort.quad_swap__anon_14834
	tbz	w0, #0, LBB2_844
LBB2_573:
	ldr	x21, [sp, #136]                 ; 8-byte Folded Reload
	mov	x0, x20
	ldr	x22, [sp, #264]                 ; 8-byte Folded Reload
	mov	x2, x23
	mov	x3, x19
	mov	x4, x27
	mov	x1, x21
	mov	x5, x24
	mov	x6, x28
	mov	x7, x22
	mov	x26, x28
	str	x25, [sp]
	bl	l_sort.quad_merge__anon_14835
	mov	x4, x0
	mov	x0, x20
	mov	x1, x21
	mov	x2, x23
	mov	x3, x19
LBB2_574:                               ; %sort.quadsort_swap__anon_14855.exit428.i.i
	mov	x5, x27
	mov	x6, x24
	mov	x7, x28
	stp	x22, x25, [sp]
	bl	l_sort.rotate_merge__anon_14836
	b	LBB2_844
LBB2_575:
	ldr	x8, [sp, #120]                  ; 8-byte Folded Reload
	mov	x1, x23
	ldr	x0, [sp, #240]                  ; 8-byte Folded Reload
	mov	x5, x27
	ldr	x4, [sp, #168]                  ; 8-byte Folded Reload
	mov	x6, x24
	add	x3, x23, x8
	mov	x7, x28
	mov	x2, x0
	ldr	x8, [sp, #264]                  ; 8-byte Folded Reload
	stp	x8, x22, [sp]
	bl	l_sort.flux_partition__anon_14854
	b	LBB2_916
LBB2_576:
	ldr	x20, [sp, #168]                 ; 8-byte Folded Reload
	ldr	x8, [sp, #216]                  ; 8-byte Folded Reload
	cbz	x8, LBB2_837
; %bb.577:
	cmp	x20, #383
	b.hi	LBB2_835
; %bb.578:
	ldr	x0, [sp, #240]                  ; 8-byte Folded Reload
	mov	x2, x23
	ldr	x1, [sp, #104]                  ; 8-byte Folded Reload
	mov	x3, x27
	mov	x4, x24
	mov	x5, x28
	ldr	x6, [sp, #264]                  ; 8-byte Folded Reload
	mov	x7, x22
	bl	l_sort.tail_swap__anon_14832
	b	LBB2_837
LBB2_579:
	ldr	x8, [sp, #56]                   ; 8-byte Folded Reload
	mov	x1, x23
	ldr	x0, [sp, #240]                  ; 8-byte Folded Reload
	mov	x5, x27
	ldr	x4, [sp, #104]                  ; 8-byte Folded Reload
	mov	x6, x24
	add	x3, x23, x8
	mov	x7, x28
	mov	x2, x0
	ldr	x8, [sp, #264]                  ; 8-byte Folded Reload
	stp	x8, x22, [sp]
	bl	l_sort.flux_partition__anon_14854
	ldr	x19, [sp, #168]                 ; 8-byte Folded Reload
	ldr	x8, [sp, #224]                  ; 8-byte Folded Reload
	cbz	x8, LBB2_840
; %bb.580:
	ldr	x8, [sp, #320]                  ; 8-byte Folded Reload
	ldr	x1, [sp, #112]                  ; 8-byte Folded Reload
	add	x20, x8, x28
	cmp	x1, #95
	b.hi	LBB2_838
; %bb.581:
	mov	x0, x20
	mov	x2, x23
	mov	x3, x27
	mov	x4, x24
	mov	x5, x28
	ldr	x6, [sp, #264]                  ; 8-byte Folded Reload
	mov	x7, x22
	bl	l_sort.tail_swap__anon_14832
	b	LBB2_840
LBB2_582:
	mov	x25, x24
	ldr	x21, [sp, #168]                 ; 8-byte Folded Reload
	ldp	x8, x24, [sp, #216]             ; 16-byte Folded Reload
	cbz	x8, LBB2_856
; %bb.583:
	cmp	x21, #383
	b.hi	LBB2_854
; %bb.584:
	ldr	x0, [sp, #240]                  ; 8-byte Folded Reload
	mov	x2, x23
	ldr	x1, [sp, #104]                  ; 8-byte Folded Reload
	mov	x3, x27
	mov	x4, x25
	mov	x5, x28
	ldr	x6, [sp, #264]                  ; 8-byte Folded Reload
	mov	x7, x22
	bl	l_sort.tail_swap__anon_14832
	b	LBB2_856
LBB2_585:
	ldp	x8, x4, [sp, #72]               ; 16-byte Folded Reload
	mov	x1, x23
	mov	x5, x27
	ldr	x0, [sp, #240]                  ; 8-byte Folded Reload
	mov	x6, x24
	mov	x7, x28
	add	x3, x23, x8
	ldr	x8, [sp, #264]                  ; 8-byte Folded Reload
	mov	x2, x0
	stp	x8, x22, [sp]
	bl	l_sort.flux_partition__anon_14854
	ldr	x19, [sp, #168]                 ; 8-byte Folded Reload
	ldr	x21, [sp, #304]                 ; 8-byte Folded Reload
	ldr	x8, [sp, #232]                  ; 8-byte Folded Reload
	cbz	x8, LBB2_861
; %bb.586:
	ldr	x8, [sp, #344]                  ; 8-byte Folded Reload
	add	x20, x8, x28
	ldr	x8, [sp, #96]                   ; 8-byte Folded Reload
	cmp	x8, #191
	b.hi	LBB2_859
; %bb.587:
	mov	x0, x20
	ldr	x1, [sp, #128]                  ; 8-byte Folded Reload
	mov	x2, x23
	mov	x3, x27
	mov	x4, x24
	mov	x5, x28
	ldr	x6, [sp, #264]                  ; 8-byte Folded Reload
	mov	x7, x22
	bl	l_sort.tail_swap__anon_14832
	b	LBB2_861
LBB2_588:
	ldr	x8, [sp, #88]                   ; 8-byte Folded Reload
	mov	x20, x0
	ldr	x0, [sp, #240]                  ; 8-byte Folded Reload
	mov	x1, x23
	ldr	x4, [sp, #48]                   ; 8-byte Folded Reload
	mov	x5, x27
	add	x3, x23, x8
	mov	x6, x24
	mov	x2, x0
	mov	x7, x28
	ldr	x8, [sp, #264]                  ; 8-byte Folded Reload
	stp	x8, x22, [sp]
	bl	l_sort.flux_partition__anon_14854
	ldr	x19, [sp, #168]                 ; 8-byte Folded Reload
	mov	x25, x22
	cbnz	x20, LBB2_569
	b	LBB2_844
LBB2_589:
	mov	x19, x0
	ldr	x21, [sp, #168]                 ; 8-byte Folded Reload
	ldr	x8, [sp, #216]                  ; 8-byte Folded Reload
	cbz	x8, LBB2_864
; %bb.590:
	cmp	x21, #383
	b.hi	LBB2_862
; %bb.591:
	ldr	x0, [sp, #240]                  ; 8-byte Folded Reload
	mov	x2, x23
	ldr	x1, [sp, #104]                  ; 8-byte Folded Reload
	mov	x3, x27
	mov	x4, x24
	mov	x5, x28
	ldr	x6, [sp, #264]                  ; 8-byte Folded Reload
	mov	x7, x22
	bl	l_sort.tail_swap__anon_14832
	b	LBB2_864
LBB2_592:
	ldp	x8, x4, [sp, #72]               ; 16-byte Folded Reload
	mov	x9, x22
	mov	x22, x0
	ldr	x0, [sp, #240]                  ; 8-byte Folded Reload
	mov	x1, x23
	mov	x5, x27
	mov	x6, x24
	add	x3, x23, x8
	mov	x7, x28
	mov	x2, x0
	ldr	x8, [sp, #264]                  ; 8-byte Folded Reload
	mov	x21, x9
	stp	x8, x9, [sp]
	bl	l_sort.flux_partition__anon_14854
	ldr	x19, [sp, #168]                 ; 8-byte Folded Reload
	ldr	x8, [sp, #232]                  ; 8-byte Folded Reload
	cbz	x8, LBB2_869
; %bb.593:
	ldr	x8, [sp, #344]                  ; 8-byte Folded Reload
	add	x20, x8, x28
	ldr	x8, [sp, #96]                   ; 8-byte Folded Reload
	cmp	x8, #191
	b.hi	LBB2_867
; %bb.594:
	mov	x0, x20
	ldr	x1, [sp, #128]                  ; 8-byte Folded Reload
	mov	x2, x23
	mov	x3, x27
	mov	x4, x24
	mov	x5, x28
	ldr	x6, [sp, #264]                  ; 8-byte Folded Reload
	mov	x7, x21
	bl	l_sort.tail_swap__anon_14832
	b	LBB2_869
LBB2_595:                               ; %._crit_edge.i339.i.i
	neg	x8, x21
	str	x8, [sp, #296]                  ; 8-byte Folded Spill
LBB2_596:
	mov	x23, xzr
	mov	x24, xzr
	lsr	x26, x20, #1
LBB2_597:                               ; =>This Inner Loop Header: Depth=1
	ldr	x8, [sp, #336]                  ; 8-byte Folded Reload
	add	x0, sp, #1, lsl #12             ; =4096
	mov	x19, x22
	add	x25, x22, x23
	mov	x22, x27
	add	x28, x27, x24
	add	x20, x8, x23
	add	x0, x0, #688
	mov	x1, x20
	ldr	x27, [sp, #264]                 ; 8-byte Folded Reload
	add	x21, x9, x24
	blr	x27
	mov	x0, x20
	mov	x1, x21
	blr	x27
	add	x1, sp, #1, lsl #12             ; =4096
	mov	x0, x21
	add	x1, x1, #688
	blr	x27
	add	x0, sp, #1, lsl #12             ; =4096
	mov	x1, x28
	add	x0, x0, #784
	blr	x27
	mov	x0, x28
	mov	x1, x25
	blr	x27
	add	x1, sp, #1, lsl #12             ; =4096
	mov	x0, x25
	add	x1, x1, #784
	blr	x27
	cbz	x26, LBB2_599
; %bb.598:                              ;   in Loop: Header=BB2_597 Depth=1
	ldr	x8, [sp, #296]                  ; 8-byte Folded Reload
	sub	x26, x26, #1
	ldr	x9, [sp, #312]                  ; 8-byte Folded Reload
	mov	x27, x22
	mov	x22, x19
	add	x24, x24, x8
	ldr	x8, [sp, #352]                  ; 8-byte Folded Reload
	add	x23, x23, x8
	b	LBB2_597
LBB2_599:                               ; %.thread442.thread.thread.i.i
	ldp	x28, x24, [sp, #352]            ; 16-byte Folded Reload
	mov	x20, xzr
	str	xzr, [sp, #232]                 ; 8-byte Folded Spill
	ldr	x12, [sp, #168]                 ; 8-byte Folded Reload
	mov	x23, xzr
	ldr	x22, [sp, #304]                 ; 8-byte Folded Reload
	mov	x0, xzr
LBB2_600:
	ldr	w8, [sp, #184]                  ; 4-byte Folded Reload
	lsr	x9, x12, #9
	ldr	w10, [sp, #192]                 ; 4-byte Folded Reload
	str	x23, [sp, #216]                 ; 8-byte Folded Spill
	ldr	w11, [sp, #208]                 ; 4-byte Folded Reload
	cmp	x9, w8, uxtw
	cset	w8, lo
	cmp	x9, w10, uxtw
	ldr	w10, [sp, #200]                 ; 4-byte Folded Reload
	cset	w19, lo
	cmp	x9, w10, uxtw
	mov	x10, x12
	cset	w25, lo
	cmp	x9, w11, uxtw
	cset	w21, lo
	mov	w9, #3
	movk	w9, #16, lsl #16
	cmp	x12, x9
	b.ls	LBB2_602
; %bb.601:
	mov	w21, #1
	mov	w25, #1
	mov	w19, #1
	mov	w8, #1
LBB2_602:
	lsl	w9, w25, #2
Lloh10:
	adrp	x10, LJTI2_5@PAGE
Lloh11:
	add	x10, x10, LJTI2_5@PAGEOFF
	orr	w9, w9, w19, lsl #1
	orr	w9, w9, w21, lsl #3
	ldr	x23, [sp, #152]                 ; 8-byte Folded Reload
	orr	w9, w9, w8
	adr	x11, LBB2_603
	ldrh	w12, [x10, x9, lsl #1]
	add	x11, x11, x12, lsl #2
	br	x11
LBB2_603:
	str	x20, [sp, #256]                 ; 8-byte Folded Spill
	cbz	w8, LBB2_607
; %bb.604:
	cbz	x0, LBB2_610
; %bb.605:
	ldr	x8, [sp, #168]                  ; 8-byte Folded Reload
	cmp	x8, #383
	b.hi	LBB2_608
; %bb.606:
	ldr	x0, [sp, #240]                  ; 8-byte Folded Reload
	mov	x2, x23
	ldr	x1, [sp, #112]                  ; 8-byte Folded Reload
	mov	x4, x24
	ldr	x3, [sp, #328]                  ; 8-byte Folded Reload
	mov	x5, x28
	ldr	x6, [sp, #264]                  ; 8-byte Folded Reload
	bl	l_sort.tail_swap__anon_14838
	b	LBB2_610
LBB2_607:
	ldr	x8, [sp, #72]                   ; 8-byte Folded Reload
	mov	x1, x23
	ldr	x0, [sp, #240]                  ; 8-byte Folded Reload
	mov	x6, x24
	ldr	x4, [sp, #112]                  ; 8-byte Folded Reload
	mov	x7, x28
	add	x3, x23, x8
	ldr	x5, [sp, #328]                  ; 8-byte Folded Reload
	mov	x2, x0
	ldr	x8, [sp, #264]                  ; 8-byte Folded Reload
	str	x8, [sp]
	bl	l_sort.flux_partition__anon_14857
	b	LBB2_610
LBB2_608:
	ldr	x0, [sp, #240]                  ; 8-byte Folded Reload
	mov	x3, x24
	ldr	x1, [sp, #112]                  ; 8-byte Folded Reload
	mov	x4, x28
	ldr	x2, [sp, #328]                  ; 8-byte Folded Reload
	ldr	x5, [sp, #264]                  ; 8-byte Folded Reload
	bl	l_sort.quad_swap__anon_14839
	tbz	w0, #0, LBB2_610
; %bb.609:
	ldr	x27, [sp, #264]                 ; 8-byte Folded Reload
	mov	x2, x23
	ldr	x20, [sp, #240]                 ; 8-byte Folded Reload
	mov	x5, x24
	ldr	x22, [sp, #168]                 ; 8-byte Folded Reload
	mov	x6, x28
	ldr	x26, [sp, #328]                 ; 8-byte Folded Reload
	mov	x7, x27
	mov	x0, x20
	ldr	x1, [sp, #112]                  ; 8-byte Folded Reload
	mov	x3, x22
	mov	x4, x26
	bl	l_sort.quad_merge__anon_14840
	mov	x4, x0
	mov	x0, x20
	ldr	x1, [sp, #112]                  ; 8-byte Folded Reload
	mov	x3, x22
	ldr	x2, [sp, #152]                  ; 8-byte Folded Reload
	mov	x5, x26
	mov	x6, x24
	ldr	x7, [sp, #352]                  ; 8-byte Folded Reload
	ldr	x22, [sp, #304]                 ; 8-byte Folded Reload
	str	x27, [sp]
	bl	l_sort.rotate_merge__anon_14841
LBB2_610:                               ; %sort.quadsort_swap__anon_14858.exit431.i.i
	cbz	w19, LBB2_614
; %bb.611:
	ldr	x8, [sp, #216]                  ; 8-byte Folded Reload
	cbz	x8, LBB2_617
; %bb.612:
	ldr	x1, [sp, #104]                  ; 8-byte Folded Reload
	add	x20, x22, x28
	cmp	x1, #95
	b.hi	LBB2_615
; %bb.613:
	mov	x0, x20
	mov	x2, x23
	ldr	x3, [sp, #328]                  ; 8-byte Folded Reload
	mov	x4, x24
	mov	x5, x28
	ldr	x6, [sp, #264]                  ; 8-byte Folded Reload
	bl	l_sort.tail_swap__anon_14838
	b	LBB2_617
LBB2_614:
	ldr	x4, [sp, #104]                  ; 8-byte Folded Reload
	add	x0, x22, x28
	mov	x1, x23
	mov	x7, x28
	mov	x2, x0
	ldr	x5, [sp, #328]                  ; 8-byte Folded Reload
	madd	x3, x4, x28, x23
	mov	x6, x24
	ldr	x8, [sp, #264]                  ; 8-byte Folded Reload
	str	x8, [sp]
	bl	l_sort.flux_partition__anon_14857
	b	LBB2_617
LBB2_615:
	mov	x0, x20
	ldr	x2, [sp, #328]                  ; 8-byte Folded Reload
	mov	x3, x24
	mov	x4, x28
	ldr	x5, [sp, #264]                  ; 8-byte Folded Reload
	bl	l_sort.quad_swap__anon_14839
	tbz	w0, #0, LBB2_617
; %bb.616:
	ldr	x22, [sp, #104]                 ; 8-byte Folded Reload
	mov	x0, x20
	ldr	x19, [sp, #168]                 ; 8-byte Folded Reload
	mov	x2, x23
	ldr	x26, [sp, #328]                 ; 8-byte Folded Reload
	mov	x5, x24
	ldr	x27, [sp, #264]                 ; 8-byte Folded Reload
	mov	x1, x22
	mov	x3, x19
	mov	x6, x28
	mov	x4, x26
	mov	x7, x27
	bl	l_sort.quad_merge__anon_14840
	mov	x4, x0
	mov	x0, x20
	mov	x1, x22
	ldr	x2, [sp, #152]                  ; 8-byte Folded Reload
	mov	x3, x19
	mov	x5, x26
	mov	x6, x24
	ldr	x7, [sp, #352]                  ; 8-byte Folded Reload
	ldr	x22, [sp, #304]                 ; 8-byte Folded Reload
	str	x27, [sp]
	bl	l_sort.rotate_merge__anon_14841
LBB2_617:                               ; %sort.quadsort_swap__anon_14858.exit432.i.i
	cbz	w25, LBB2_621
; %bb.618:
	ldr	x19, [sp, #168]                 ; 8-byte Folded Reload
	ldr	x8, [sp, #232]                  ; 8-byte Folded Reload
	cbz	x8, LBB2_624
; %bb.619:
	ldr	x8, [sp, #320]                  ; 8-byte Folded Reload
	add	x20, x8, x28
	ldr	x8, [sp, #128]                  ; 8-byte Folded Reload
	cmp	x8, #191
	b.hi	LBB2_622
; %bb.620:
	mov	x0, x20
	ldr	x1, [sp, #144]                  ; 8-byte Folded Reload
	mov	x2, x23
	ldr	x3, [sp, #328]                  ; 8-byte Folded Reload
	mov	x4, x24
	mov	x5, x28
	ldr	x6, [sp, #264]                  ; 8-byte Folded Reload
	bl	l_sort.tail_swap__anon_14838
	b	LBB2_624
LBB2_621:
	ldp	x8, x5, [sp, #320]              ; 16-byte Folded Reload
	mov	x7, x28
	mov	x1, x23
	ldr	x4, [sp, #144]                  ; 8-byte Folded Reload
	mov	x6, x24
	add	x0, x8, x28
	ldr	x8, [sp, #264]                  ; 8-byte Folded Reload
	madd	x3, x4, x28, x23
	mov	x2, x0
	str	x8, [sp]
	bl	l_sort.flux_partition__anon_14857
	ldr	x19, [sp, #168]                 ; 8-byte Folded Reload
	b	LBB2_624
LBB2_622:
	mov	x0, x20
	ldr	x1, [sp, #144]                  ; 8-byte Folded Reload
	ldr	x2, [sp, #328]                  ; 8-byte Folded Reload
	mov	x3, x24
	mov	x4, x28
	ldr	x5, [sp, #264]                  ; 8-byte Folded Reload
	bl	l_sort.quad_swap__anon_14839
	tbz	w0, #0, LBB2_624
; %bb.623:
	ldr	x22, [sp, #144]                 ; 8-byte Folded Reload
	mov	x0, x20
	ldr	x25, [sp, #328]                 ; 8-byte Folded Reload
	mov	x2, x23
	ldr	x26, [sp, #264]                 ; 8-byte Folded Reload
	mov	x3, x19
	mov	x1, x22
	mov	x5, x24
	mov	x4, x25
	mov	x6, x28
	mov	x7, x26
	mov	x27, x28
	bl	l_sort.quad_merge__anon_14840
	mov	x4, x0
	mov	x0, x20
	mov	x1, x22
	mov	x2, x23
	mov	x3, x19
	mov	x5, x25
	mov	x6, x24
	mov	x7, x28
	ldr	x22, [sp, #304]                 ; 8-byte Folded Reload
	str	x26, [sp]
	bl	l_sort.rotate_merge__anon_14841
LBB2_624:                               ; %sort.quadsort_swap__anon_14858.exit433.i.i
	cbz	w21, LBB2_628
; %bb.625:
	ldr	x8, [sp, #256]                  ; 8-byte Folded Reload
	cbz	x8, LBB2_906
LBB2_626:
	ldr	x8, [sp, #344]                  ; 8-byte Folded Reload
	ldr	x1, [sp, #136]                  ; 8-byte Folded Reload
	add	x20, x8, x28
	cmp	x1, #95
	b.hi	LBB2_629
LBB2_627:
	mov	x0, x20
	mov	x2, x23
	ldr	x3, [sp, #328]                  ; 8-byte Folded Reload
	mov	x4, x24
	mov	x5, x28
	ldr	x6, [sp, #264]                  ; 8-byte Folded Reload
	bl	l_sort.tail_swap__anon_14838
	b	LBB2_906
LBB2_628:
	ldr	x4, [sp, #136]                  ; 8-byte Folded Reload
	mov	x7, x28
	ldr	x8, [sp, #344]                  ; 8-byte Folded Reload
	b	LBB2_904
LBB2_629:
	mov	x0, x20
	ldr	x2, [sp, #328]                  ; 8-byte Folded Reload
	mov	x3, x24
	mov	x4, x28
	ldr	x5, [sp, #264]                  ; 8-byte Folded Reload
	bl	l_sort.quad_swap__anon_14839
	tbz	w0, #0, LBB2_906
; %bb.630:
	ldr	x21, [sp, #136]                 ; 8-byte Folded Reload
	mov	x0, x20
	ldr	x25, [sp, #328]                 ; 8-byte Folded Reload
	mov	x2, x23
	ldr	x26, [sp, #264]                 ; 8-byte Folded Reload
	mov	x3, x19
	mov	x1, x21
	mov	x5, x24
	mov	x4, x25
	mov	x6, x28
	mov	x7, x26
	mov	x27, x28
	bl	l_sort.quad_merge__anon_14840
	mov	x4, x0
	mov	x0, x20
	mov	x1, x21
	mov	x2, x23
	mov	x3, x19
LBB2_631:                               ; %sort.quadsort_swap__anon_14858.exit426.i.i
	mov	x5, x25
	mov	x6, x24
	mov	x7, x28
	str	x26, [sp]
	bl	l_sort.rotate_merge__anon_14841
	b	LBB2_906
LBB2_632:
	ldr	x8, [sp, #120]                  ; 8-byte Folded Reload
	mov	x1, x23
	ldr	x0, [sp, #240]                  ; 8-byte Folded Reload
	mov	x6, x24
	ldr	x4, [sp, #168]                  ; 8-byte Folded Reload
	mov	x7, x28
	add	x3, x23, x8
	ldr	x5, [sp, #328]                  ; 8-byte Folded Reload
	mov	x2, x0
	ldr	x8, [sp, #264]                  ; 8-byte Folded Reload
	str	x8, [sp]
	bl	l_sort.flux_partition__anon_14857
	b	LBB2_916
LBB2_633:
	ldr	x20, [sp, #168]                 ; 8-byte Folded Reload
	cbz	x0, LBB2_874
; %bb.634:
	cmp	x20, #383
	b.hi	LBB2_872
; %bb.635:
	ldr	x0, [sp, #240]                  ; 8-byte Folded Reload
	mov	x2, x23
	ldr	x1, [sp, #112]                  ; 8-byte Folded Reload
	mov	x4, x24
	ldr	x3, [sp, #328]                  ; 8-byte Folded Reload
	mov	x5, x28
	ldr	x6, [sp, #264]                  ; 8-byte Folded Reload
	bl	l_sort.tail_swap__anon_14838
	b	LBB2_874
LBB2_636:
	ldr	x8, [sp, #72]                   ; 8-byte Folded Reload
	mov	x1, x23
	ldr	x0, [sp, #240]                  ; 8-byte Folded Reload
	mov	x6, x24
	ldr	x4, [sp, #112]                  ; 8-byte Folded Reload
	mov	x7, x28
	add	x3, x23, x8
	ldr	x5, [sp, #328]                  ; 8-byte Folded Reload
	mov	x2, x0
	ldr	x8, [sp, #264]                  ; 8-byte Folded Reload
	mov	x25, x23
	str	x8, [sp]
	bl	l_sort.flux_partition__anon_14857
	ldr	x19, [sp, #168]                 ; 8-byte Folded Reload
	ldr	x8, [sp, #216]                  ; 8-byte Folded Reload
	cbz	x8, LBB2_877
; %bb.637:
	ldr	x1, [sp, #104]                  ; 8-byte Folded Reload
	add	x20, x22, x28
	cmp	x1, #95
	b.hi	LBB2_875
; %bb.638:
	mov	x0, x20
	mov	x2, x23
	ldr	x3, [sp, #328]                  ; 8-byte Folded Reload
	mov	x4, x24
	mov	x5, x28
	ldr	x6, [sp, #264]                  ; 8-byte Folded Reload
	mov	x25, x23
	bl	l_sort.tail_swap__anon_14838
	b	LBB2_877
LBB2_639:
	ldr	x21, [sp, #168]                 ; 8-byte Folded Reload
	ldr	x1, [sp, #112]                  ; 8-byte Folded Reload
	cbz	x0, LBB2_880
; %bb.640:
	cmp	x21, #383
	b.hi	LBB2_878
; %bb.641:
	ldr	x0, [sp, #240]                  ; 8-byte Folded Reload
	mov	x2, x23
	ldr	x3, [sp, #328]                  ; 8-byte Folded Reload
	mov	x4, x24
	mov	x5, x28
	ldr	x6, [sp, #264]                  ; 8-byte Folded Reload
	bl	l_sort.tail_swap__anon_14838
	b	LBB2_880
LBB2_642:
	ldp	x8, x4, [sp, #80]               ; 16-byte Folded Reload
	mov	x1, x23
	mov	x6, x24
	ldr	x0, [sp, #240]                  ; 8-byte Folded Reload
	mov	x7, x28
	ldr	x5, [sp, #328]                  ; 8-byte Folded Reload
	add	x3, x23, x8
	ldr	x8, [sp, #264]                  ; 8-byte Folded Reload
	mov	x2, x0
	str	x8, [sp]
	bl	l_sort.flux_partition__anon_14857
	ldr	x19, [sp, #168]                 ; 8-byte Folded Reload
	ldr	x21, [sp, #344]                 ; 8-byte Folded Reload
	ldr	x8, [sp, #232]                  ; 8-byte Folded Reload
	cbz	x8, LBB2_885
; %bb.643:
	ldr	x8, [sp, #320]                  ; 8-byte Folded Reload
	add	x20, x8, x28
	ldr	x8, [sp, #128]                  ; 8-byte Folded Reload
	cmp	x8, #191
	b.hi	LBB2_883
; %bb.644:
	mov	x0, x20
	ldr	x1, [sp, #144]                  ; 8-byte Folded Reload
	mov	x2, x23
	ldr	x3, [sp, #328]                  ; 8-byte Folded Reload
	mov	x4, x24
	mov	x5, x28
	ldr	x6, [sp, #264]                  ; 8-byte Folded Reload
	bl	l_sort.tail_swap__anon_14838
	b	LBB2_885
LBB2_645:
	ldp	x8, x4, [sp, #56]               ; 16-byte Folded Reload
	mov	x1, x23
	mov	x6, x24
	ldr	x0, [sp, #240]                  ; 8-byte Folded Reload
	mov	x7, x28
	ldr	x5, [sp, #328]                  ; 8-byte Folded Reload
	add	x3, x23, x8
	ldr	x8, [sp, #264]                  ; 8-byte Folded Reload
	mov	x2, x0
	str	x8, [sp]
	bl	l_sort.flux_partition__anon_14857
	ldr	x19, [sp, #168]                 ; 8-byte Folded Reload
	cbnz	x20, LBB2_626
	b	LBB2_906
LBB2_646:
	ldr	x21, [sp, #168]                 ; 8-byte Folded Reload
	cbz	x0, LBB2_888
; %bb.647:
	cmp	x21, #383
	b.hi	LBB2_886
; %bb.648:
	ldr	x0, [sp, #240]                  ; 8-byte Folded Reload
	mov	x2, x23
	ldr	x1, [sp, #112]                  ; 8-byte Folded Reload
	mov	x4, x24
	ldr	x3, [sp, #328]                  ; 8-byte Folded Reload
	mov	x5, x28
	ldr	x6, [sp, #264]                  ; 8-byte Folded Reload
	bl	l_sort.tail_swap__anon_14838
	b	LBB2_888
LBB2_649:
	ldp	x8, x4, [sp, #80]               ; 16-byte Folded Reload
	mov	x1, x23
	mov	x6, x24
	ldr	x0, [sp, #240]                  ; 8-byte Folded Reload
	mov	x7, x28
	ldr	x5, [sp, #328]                  ; 8-byte Folded Reload
	mov	x25, x20
	add	x3, x23, x8
	ldr	x8, [sp, #264]                  ; 8-byte Folded Reload
	mov	x2, x0
	str	x8, [sp]
	bl	l_sort.flux_partition__anon_14857
	ldr	x19, [sp, #168]                 ; 8-byte Folded Reload
	ldr	x8, [sp, #232]                  ; 8-byte Folded Reload
	cbz	x8, LBB2_894
; %bb.650:
	ldr	x8, [sp, #320]                  ; 8-byte Folded Reload
	add	x20, x8, x28
	ldr	x8, [sp, #128]                  ; 8-byte Folded Reload
	cmp	x8, #191
	b.hi	LBB2_892
; %bb.651:
	mov	x0, x20
	ldr	x1, [sp, #144]                  ; 8-byte Folded Reload
	mov	x2, x23
	ldr	x3, [sp, #328]                  ; 8-byte Folded Reload
	mov	x4, x24
	mov	x5, x28
	ldr	x6, [sp, #264]                  ; 8-byte Folded Reload
	bl	l_sort.tail_swap__anon_14838
	cbnz	x25, LBB2_626
	b	LBB2_906
LBB2_652:                               ; %.lr.ph191.preheader.i.i
	lsr	x11, x8, #1
	cmp	x8, #48
	b.lo	LBB2_831
; %bb.653:                              ; %vector.scevcheck2052
	ldr	x13, [sp, #344]                 ; 8-byte Folded Reload
	sub	x12, x11, #1
	sub	x14, x13, #8
	lsl	x13, x12, #3
	sub	x15, x14, x13
	cmp	x15, x14
	b.hi	LBB2_831
; %bb.654:                              ; %vector.scevcheck2052
	sub	x14, x10, #8
	sub	x13, x14, x13
	cmp	x13, x14
	b.hi	LBB2_831
; %bb.655:                              ; %vector.scevcheck2052
	lsr	x12, x12, #61
	cbnz	x12, LBB2_831
; %bb.656:                              ; %vector.memcheck2061
	ldr	x14, [sp, #208]                 ; 8-byte Folded Reload
	lsl	x12, x11, #3
	ldr	x4, [sp, #344]                  ; 8-byte Folded Reload
	add	x13, x12, #8
	sub	x1, x10, x12
	add	x2, x9, #8
	add	x17, x14, #8
	add	x0, x14, x13
	sub	x16, x4, x12
	cmp	x17, x4
	ccmp	x16, x0, #2, lo
	add	x3, x9, x13
	cset	w12, lo
	cmp	x17, x10
	ccmp	x1, x0, #2, lo
	cset	w13, lo
	cmp	x2, x4
	ccmp	x16, x3, #2, lo
	cset	w14, lo
	cmp	x2, x10
	ccmp	x1, x3, #2, lo
	cset	w15, lo
	cmp	x16, x10
	ccmp	x1, x4, #2, lo
	cset	w16, lo
	cmp	x2, x0
	ccmp	x17, x3, #2, lo
	b.lo	LBB2_954
; %bb.657:                              ; %vector.memcheck2061
	tbnz	w12, #0, LBB2_954
; %bb.658:                              ; %vector.memcheck2061
	tbnz	w13, #0, LBB2_954
; %bb.659:                              ; %vector.memcheck2061
	tbnz	w14, #0, LBB2_954
; %bb.660:                              ; %vector.memcheck2061
	tbnz	w15, #0, LBB2_954
; %bb.661:                              ; %vector.memcheck2061
	tbnz	w16, #0, LBB2_954
; %bb.662:                              ; %vector.ph2094
	ldr	x17, [sp, #208]                 ; 8-byte Folded Reload
	and	x16, x11, #0x7ffffffffffffffe
	ldr	x0, [sp, #344]                  ; 8-byte Folded Reload
	lsl	x15, x16, #3
	ubfx	x8, x8, #1, #1
	sub	x13, x10, x15
	add	x12, x17, x15
	add	x14, x9, x15
	sub	x15, x0, x15
	add	x17, x17, #8
	add	x9, x9, #8
	sub	x0, x0, #16
	sub	x10, x10, #16
	neg	x1, x16
LBB2_663:                               ; %vector.body2108
                                        ; =>This Inner Loop Header: Depth=1
	ldr	q0, [x0]
	adds	x1, x1, #2
	ldr	q1, [x17]
	ext.16b	v0, v0, v0, #8
	ext.16b	v1, v1, v1, #8
	str	q0, [x17], #16
	str	q1, [x0], #-16
	ldr	q0, [x9]
	ldr	q1, [x10]
	ext.16b	v0, v0, v0, #8
	ext.16b	v1, v1, v1, #8
	str	q0, [x10], #-16
	str	q1, [x9], #16
	b.ne	LBB2_663
; %bb.664:                              ; %middle.block2091
	ldr	x1, [sp, #304]                  ; 8-byte Folded Reload
	cmp	x11, x16
	ldr	x17, [sp, #288]                 ; 8-byte Folded Reload
	b.eq	LBB2_178
	b	LBB2_832
LBB2_665:
	ldr	x12, [sp, #208]                 ; 8-byte Folded Reload
	mov	x8, x11
	ldr	x15, [sp, #344]                 ; 8-byte Folded Reload
	mov	x13, x10
	mov	x14, x9
LBB2_666:                               ; %.lr.ph161.i.i.preheader
	add	x9, x12, #8
	sub	x10, x13, #8
	add	x11, x14, #8
	sub	x12, x15, #8
LBB2_667:                               ; %.lr.ph161.i.i
                                        ; =>This Inner Loop Header: Depth=1
	ldr	x13, [x12]
	subs	x8, x8, #1
	ldr	x14, [x9]
	str	x13, [x9], #8
	str	x14, [x12], #-8
	ldr	x13, [x11]
	ldr	x14, [x10]
	str	x13, [x10], #-8
	str	x14, [x11], #8
	b.ne	LBB2_667
LBB2_668:                               ; %sort.quad_reversal.exit331.i.i
	ldr	x8, [sp, #344]                  ; 8-byte Folded Reload
	add	x8, x8, #1
	sub	x12, x7, x8
	lsr	x9, x12, #4
	lsl	x10, x9, #3
	add	x11, x8, x10
	sub	x10, x7, x10
	tbnz	w12, #4, LBB2_670
; %bb.669:
	ldr	x12, [x10]
	sub	x9, x9, #1
	ldr	x13, [x11]
	str	x12, [x11], #-8
	str	x13, [x10], #8
LBB2_670:                               ; %._crit_edge.i332.i.i
	ldr	x12, [x7]
	cmp	x9, #2
	ldr	x13, [x8]
	str	x12, [x8]
	str	x13, [x7]
	ldr	x12, [x10]
	ldr	x13, [x11]
	str	x12, [x11]
	str	x13, [x10]
	b.lo	LBB2_718
; %bb.671:                              ; %.lr.ph167.preheader.i.i
	lsr	x12, x9, #1
	cmp	x9, #48
	b.lo	LBB2_715
; %bb.672:                              ; %vector.scevcheck1768
	sub	x13, x12, #1
	sub	x15, x7, #8
	lsl	x14, x13, #3
	sub	x16, x15, x14
	cmp	x16, x15
	b.hi	LBB2_715
; %bb.673:                              ; %vector.scevcheck1768
	sub	x15, x11, #8
	sub	x14, x15, x14
	cmp	x14, x15
	b.hi	LBB2_715
; %bb.674:                              ; %vector.scevcheck1768
	lsr	x13, x13, #61
	cbnz	x13, LBB2_715
; %bb.675:                              ; %vector.memcheck1777
	ldr	x13, [sp, #344]                 ; 8-byte Folded Reload
	lsl	x14, x12, #3
	sub	x17, x7, x14
	sub	x2, x11, x14
	add	x3, x10, #8
	add	x0, x13, #9
	add	x4, x3, x14
	add	x1, x0, x14
	cmp	x0, x7
	ccmp	x17, x1, #2, lo
	cset	w13, lo
	cmp	x0, x11
	ccmp	x2, x1, #2, lo
	cset	w14, lo
	cmp	x3, x7
	ccmp	x17, x4, #2, lo
	cset	w15, lo
	cmp	x3, x11
	ccmp	x2, x4, #2, lo
	cset	w16, lo
	cmp	x17, x11
	ccmp	x2, x7, #2, lo
	cset	w17, lo
	cmp	x3, x1
	ccmp	x0, x4, #2, lo
	b.lo	LBB2_715
; %bb.676:                              ; %vector.memcheck1777
	tbnz	w13, #0, LBB2_715
; %bb.677:                              ; %vector.memcheck1777
	tbnz	w14, #0, LBB2_715
; %bb.678:                              ; %vector.memcheck1777
	tbnz	w15, #0, LBB2_715
; %bb.679:                              ; %vector.memcheck1777
	tbnz	w16, #0, LBB2_715
; %bb.680:                              ; %vector.memcheck1777
	tbnz	w17, #0, LBB2_715
; %bb.681:                              ; %vector.ph1810
	ldr	x17, [sp, #344]                 ; 8-byte Folded Reload
	and	x16, x12, #0x7ffffffffffffffe
	lsl	x15, x16, #3
	ubfx	x9, x9, #1, #1
	add	x8, x8, x15
	sub	x13, x11, x15
	add	x14, x10, x15
	sub	x15, x7, x15
	add	x17, x17, #9
	add	x10, x10, #8
	sub	x0, x7, #16
	sub	x11, x11, #16
	neg	x1, x16
LBB2_682:                               ; %vector.body1824
                                        ; =>This Inner Loop Header: Depth=1
	ldr	q0, [x0]
	adds	x1, x1, #2
	ldr	q1, [x17]
	ext.16b	v0, v0, v0, #8
	ext.16b	v1, v1, v1, #8
	str	q0, [x17], #16
	str	q1, [x0], #-16
	ldr	q0, [x10]
	ldr	q1, [x11]
	ext.16b	v0, v0, v0, #8
	ext.16b	v1, v1, v1, #8
	str	q0, [x11], #-16
	str	q1, [x10], #16
	b.ne	LBB2_682
; %bb.683:                              ; %middle.block1807
	cmp	x12, x16
	b.ne	LBB2_716
	b	LBB2_718
LBB2_684:
	mov	x9, x12
	mov	x13, x11
	mov	x14, x10
	mov	x15, x7
LBB2_685:                               ; %.lr.ph155.i.i.preheader
	add	x8, x8, #8
	sub	x10, x13, #8
	add	x11, x14, #8
	sub	x12, x15, #8
LBB2_686:                               ; %.lr.ph155.i.i
                                        ; =>This Inner Loop Header: Depth=1
	ldr	x13, [x12]
	subs	x9, x9, #1
	ldr	x14, [x8]
	str	x13, [x8], #8
	str	x14, [x12], #-8
	ldr	x13, [x11]
	ldr	x14, [x10]
	str	x13, [x10], #-8
	str	x14, [x11], #8
	b.ne	LBB2_686
LBB2_687:
	mov	x1, xzr
	b	LBB2_953
LBB2_688:
	mov	x9, x12
	mov	x13, x11
	mov	x14, x10
	mov	x15, x6
LBB2_689:                               ; %.lr.ph170.i.i.preheader
	add	x8, x8, #8
	sub	x10, x13, #8
	add	x11, x14, #8
	sub	x12, x15, #8
LBB2_690:                               ; %.lr.ph170.i.i
                                        ; =>This Inner Loop Header: Depth=1
	ldr	x13, [x12]
	subs	x9, x9, #1
	ldr	x14, [x8]
	str	x13, [x8], #8
	str	x14, [x12], #-8
	ldr	x13, [x11]
	ldr	x14, [x10]
	str	x13, [x10], #-8
	str	x14, [x11], #8
	b.ne	LBB2_690
LBB2_691:
	mov	x1, xzr
	mov	x25, xzr
	b	LBB2_743
LBB2_692:
	ldr	x12, [sp, #208]                 ; 8-byte Folded Reload
	mov	x8, x11
	ldr	x15, [sp, #336]                 ; 8-byte Folded Reload
	mov	x13, x10
	mov	x14, x9
LBB2_693:                               ; %.lr.ph158.i.i.preheader
	add	x9, x12, #8
	sub	x10, x13, #8
	add	x11, x14, #8
	sub	x12, x15, #8
LBB2_694:                               ; %.lr.ph158.i.i
                                        ; =>This Inner Loop Header: Depth=1
	ldr	x13, [x12]
	subs	x8, x8, #1
	ldr	x14, [x9]
	str	x13, [x9], #8
	str	x14, [x12], #-8
	ldr	x13, [x11]
	ldr	x14, [x10]
	str	x13, [x10], #-8
	str	x14, [x11], #8
	b.ne	LBB2_694
LBB2_695:                               ; %sort.quad_reversal.exit329.i.i
	ldr	x8, [sp, #336]                  ; 8-byte Folded Reload
	add	x8, x8, #1
	sub	x12, x6, x8
	lsr	x9, x12, #4
	lsl	x10, x9, #3
	add	x11, x8, x10
	sub	x10, x6, x10
	tbnz	w12, #4, LBB2_697
; %bb.696:
	ldr	x12, [x10]
	sub	x9, x9, #1
	ldr	x13, [x11]
	str	x12, [x11], #-8
	str	x13, [x10], #8
LBB2_697:                               ; %._crit_edge.i330.i.i
	ldr	x12, [x6]
	cmp	x9, #2
	ldr	x13, [x8]
	str	x12, [x8]
	str	x13, [x6]
	ldr	x12, [x10]
	ldr	x13, [x11]
	str	x12, [x11]
	str	x13, [x10]
	b.lo	LBB2_722
; %bb.698:                              ; %.lr.ph164.preheader.i.i
	lsr	x12, x9, #1
	cmp	x9, #48
	b.lo	LBB2_719
; %bb.699:                              ; %vector.scevcheck916
	sub	x13, x12, #1
	sub	x15, x6, #8
	lsl	x14, x13, #3
	sub	x16, x15, x14
	cmp	x16, x15
	b.hi	LBB2_719
; %bb.700:                              ; %vector.scevcheck916
	sub	x15, x11, #8
	sub	x14, x15, x14
	cmp	x14, x15
	b.hi	LBB2_719
; %bb.701:                              ; %vector.scevcheck916
	lsr	x13, x13, #61
	cbnz	x13, LBB2_719
; %bb.702:                              ; %vector.memcheck925
	ldr	x13, [sp, #336]                 ; 8-byte Folded Reload
	lsl	x14, x12, #3
	sub	x17, x6, x14
	sub	x2, x11, x14
	add	x3, x10, #8
	add	x0, x13, #9
	add	x4, x3, x14
	add	x1, x0, x14
	cmp	x0, x6
	ccmp	x17, x1, #2, lo
	cset	w13, lo
	cmp	x0, x11
	ccmp	x2, x1, #2, lo
	cset	w14, lo
	cmp	x3, x6
	ccmp	x17, x4, #2, lo
	cset	w15, lo
	cmp	x3, x11
	ccmp	x2, x4, #2, lo
	cset	w16, lo
	cmp	x17, x11
	ccmp	x2, x6, #2, lo
	cset	w17, lo
	cmp	x3, x1
	ccmp	x0, x4, #2, lo
	b.lo	LBB2_719
; %bb.703:                              ; %vector.memcheck925
	tbnz	w13, #0, LBB2_719
; %bb.704:                              ; %vector.memcheck925
	tbnz	w14, #0, LBB2_719
; %bb.705:                              ; %vector.memcheck925
	tbnz	w15, #0, LBB2_719
; %bb.706:                              ; %vector.memcheck925
	tbnz	w16, #0, LBB2_719
; %bb.707:                              ; %vector.memcheck925
	tbnz	w17, #0, LBB2_719
; %bb.708:                              ; %vector.ph958
	ldr	x17, [sp, #336]                 ; 8-byte Folded Reload
	and	x16, x12, #0x7ffffffffffffffe
	lsl	x15, x16, #3
	ubfx	x9, x9, #1, #1
	add	x8, x8, x15
	sub	x13, x11, x15
	add	x14, x10, x15
	sub	x15, x6, x15
	add	x17, x17, #9
	add	x10, x10, #8
	sub	x0, x6, #16
	sub	x11, x11, #16
	neg	x1, x16
LBB2_709:                               ; %vector.body972
                                        ; =>This Inner Loop Header: Depth=1
	ldr	q0, [x0]
	adds	x1, x1, #2
	ldr	q1, [x17]
	ext.16b	v0, v0, v0, #8
	ext.16b	v1, v1, v1, #8
	str	q0, [x17], #16
	str	q1, [x0], #-16
	ldr	q0, [x10]
	ldr	q1, [x11]
	ext.16b	v0, v0, v0, #8
	ext.16b	v1, v1, v1, #8
	str	q0, [x11], #-16
	str	q1, [x10], #16
	b.ne	LBB2_709
; %bb.710:                              ; %middle.block955
	cmp	x12, x16
	b.ne	LBB2_720
	b	LBB2_722
LBB2_711:
	mov	x9, x12
	mov	x13, x11
	mov	x14, x10
	mov	x15, x6
LBB2_712:                               ; %.lr.ph152.i.i.preheader
	add	x8, x8, #8
	sub	x10, x13, #8
	add	x11, x14, #8
	sub	x12, x15, #8
LBB2_713:                               ; %.lr.ph152.i.i
                                        ; =>This Inner Loop Header: Depth=1
	ldr	x13, [x12]
	subs	x9, x9, #1
	ldr	x14, [x8]
	str	x13, [x8], #8
	str	x14, [x12], #-8
	ldr	x13, [x11]
	ldr	x14, [x10]
	str	x13, [x10], #-8
	str	x14, [x11], #8
	b.ne	LBB2_713
LBB2_714:
	mov	x1, xzr
	b	LBB2_742
LBB2_715:
	mov	x9, x12
	mov	x13, x11
	mov	x14, x10
	mov	x15, x7
LBB2_716:                               ; %.lr.ph167.i.i.preheader
	add	x8, x8, #8
	sub	x10, x13, #8
	add	x11, x14, #8
	sub	x12, x15, #8
LBB2_717:                               ; %.lr.ph167.i.i
                                        ; =>This Inner Loop Header: Depth=1
	ldr	x13, [x12]
	subs	x9, x9, #1
	ldr	x14, [x8]
	str	x13, [x8], #8
	str	x14, [x12], #-8
	ldr	x13, [x11]
	ldr	x14, [x10]
	str	x13, [x10], #-8
	str	x14, [x11], #8
	b.ne	LBB2_717
LBB2_718:
	mov	x1, xzr
	mov	x17, xzr
	mov	x4, xzr
	mov	x30, xzr
	b	LBB2_1152
LBB2_719:
	mov	x9, x12
	mov	x13, x11
	mov	x14, x10
	mov	x15, x6
LBB2_720:                               ; %.lr.ph164.i.i.preheader
	add	x8, x8, #8
	sub	x10, x13, #8
	add	x11, x14, #8
	sub	x12, x15, #8
LBB2_721:                               ; %.lr.ph164.i.i
                                        ; =>This Inner Loop Header: Depth=1
	ldr	x13, [x12]
	subs	x9, x9, #1
	ldr	x14, [x8]
	str	x13, [x8], #8
	str	x14, [x12], #-8
	ldr	x13, [x11]
	ldr	x14, [x10]
	str	x13, [x10], #-8
	str	x14, [x11], #8
	b.ne	LBB2_721
LBB2_722:
	mov	x1, xzr
	mov	x25, xzr
	mov	x23, xzr
	mov	x26, xzr
	b	LBB2_961
LBB2_723:
	ldr	x12, [sp, #208]                 ; 8-byte Folded Reload
	mov	x8, x11
LBB2_724:                               ; %.lr.ph179.i.i.preheader
	mov	x13, x10
	mov	x14, x9
	mov	x15, x5
LBB2_725:                               ; %.lr.ph179.i.i.preheader
	add	x9, x12, #8
	sub	x10, x13, #8
	add	x11, x14, #8
	sub	x12, x15, #8
LBB2_726:                               ; %.lr.ph179.i.i
                                        ; =>This Inner Loop Header: Depth=1
	ldr	x13, [x12]
	subs	x8, x8, #1
	ldr	x14, [x9]
	str	x13, [x9], #8
	str	x14, [x12], #-8
	ldr	x13, [x11]
	ldr	x14, [x10]
	str	x13, [x10], #-8
	str	x14, [x11], #8
	b.ne	LBB2_726
LBB2_727:
	mov	x4, xzr
	mov	x30, xzr
	b	LBB2_1127
LBB2_728:
	ldr	x12, [sp, #208]                 ; 8-byte Folded Reload
	mov	x8, x11
	ldr	x15, [sp, #344]                 ; 8-byte Folded Reload
	mov	x13, x10
LBB2_729:                               ; %.lr.ph176.i.i.preheader
	mov	x14, x9
LBB2_730:                               ; %.lr.ph176.i.i.preheader
	add	x9, x12, #8
	sub	x10, x13, #8
	add	x11, x14, #8
	sub	x12, x15, #8
LBB2_731:                               ; %.lr.ph176.i.i
                                        ; =>This Inner Loop Header: Depth=1
	ldr	x13, [x12]
	subs	x8, x8, #1
	ldr	x14, [x9]
	str	x13, [x9], #8
	str	x14, [x12], #-8
	ldr	x13, [x11]
	ldr	x14, [x10]
	str	x13, [x10], #-8
	str	x14, [x11], #8
	b.ne	LBB2_731
LBB2_732:
	mov	x23, xzr
	mov	x26, xzr
	b	LBB2_812
LBB2_733:
	ldr	x12, [sp, #208]                 ; 8-byte Folded Reload
	mov	x8, x11
	ldr	x15, [sp, #336]                 ; 8-byte Folded Reload
	mov	x13, x10
LBB2_734:                               ; %.lr.ph188.i.i.preheader
	mov	x14, x9
LBB2_735:                               ; %.lr.ph188.i.i.preheader
	add	x9, x12, #8
	sub	x10, x13, #8
	add	x11, x14, #8
	sub	x12, x15, #8
LBB2_736:                               ; %.lr.ph188.i.i
                                        ; =>This Inner Loop Header: Depth=1
	ldr	x13, [x12]
	subs	x8, x8, #1
	ldr	x14, [x9]
	str	x13, [x9], #8
	str	x14, [x12], #-8
	ldr	x13, [x11]
	ldr	x14, [x10]
	str	x13, [x10], #-8
	str	x14, [x11], #8
	b.ne	LBB2_736
LBB2_737:
	mov	x26, xzr
	b	LBB2_788
LBB2_738:
	ldr	x15, [sp, #344]                 ; 8-byte Folded Reload
	mov	x9, x12
LBB2_739:                               ; %.lr.ph182.i.i.preheader
	mov	x13, x11
	mov	x14, x10
LBB2_740:                               ; %.lr.ph182.i.i.preheader
	add	x8, x8, #8
	sub	x10, x13, #8
	add	x11, x14, #8
	sub	x12, x15, #8
LBB2_741:                               ; %.lr.ph182.i.i
                                        ; =>This Inner Loop Header: Depth=1
	ldr	x13, [x12]
	subs	x9, x9, #1
	ldr	x14, [x8]
	str	x13, [x8], #8
	str	x14, [x12], #-8
	ldr	x13, [x11]
	ldr	x14, [x10]
	str	x13, [x10], #-8
	str	x14, [x11], #8
	b.ne	LBB2_741
LBB2_742:
	mov	x25, xzr
	str	xzr, [sp, #288]                 ; 8-byte Folded Spill
LBB2_743:                               ; %sort.quad_reversal.exit299.i.i
	cbz	x26, LBB2_765
; %bb.744:                              ; %sort.quad_reversal.exit299.i.i
	cmp	x28, #1
	b.ne	LBB2_765
; %bb.745:
	ldr	x10, [sp, #208]                 ; 8-byte Folded Reload
	sub	x11, x5, x10
	lsr	x8, x11, #4
	lsl	x9, x8, #3
	add	x10, x10, x9
	sub	x9, x5, x9
	tbnz	w11, #4, LBB2_747
; %bb.746:
	ldr	x11, [x9]
	sub	x8, x8, #1
	ldr	x12, [x10]
	str	x11, [x10], #-8
	str	x12, [x9], #8
LBB2_747:                               ; %._crit_edge.i360.i.i
	ldr	x13, [sp, #208]                 ; 8-byte Folded Reload
	cmp	x8, #2
	ldr	x11, [x5]
	ldr	x12, [x13]
	str	x11, [x13]
	str	x12, [x5]
	ldr	x11, [x9]
	ldr	x12, [x10]
	str	x11, [x10]
	str	x12, [x9]
	b.lo	LBB2_764
; %bb.748:                              ; %.lr.ph194.preheader.i.i
	lsr	x11, x8, #1
	cmp	x8, #48
	b.lo	LBB2_761
; %bb.749:                              ; %vector.scevcheck1271
	sub	x12, x11, #1
	sub	x14, x5, #8
	lsl	x13, x12, #3
	sub	x15, x14, x13
	cmp	x15, x14
	b.hi	LBB2_761
; %bb.750:                              ; %vector.scevcheck1271
	sub	x14, x10, #8
	sub	x13, x14, x13
	cmp	x13, x14
	b.hi	LBB2_761
; %bb.751:                              ; %vector.scevcheck1271
	lsr	x12, x12, #61
	cbnz	x12, LBB2_761
; %bb.752:                              ; %vector.memcheck1280
	ldr	x14, [sp, #208]                 ; 8-byte Folded Reload
	lsl	x12, x11, #3
	add	x13, x12, #8
	sub	x16, x5, x12
	mov	x4, x1
	sub	x1, x10, x12
	add	x17, x14, #8
	add	x0, x14, x13
	cmp	x17, x5
	add	x2, x9, #8
	ccmp	x16, x0, #2, lo
	add	x3, x9, x13
	cset	w12, lo
	cmp	x17, x10
	ccmp	x1, x0, #2, lo
	cset	w13, lo
	cmp	x2, x5
	ccmp	x16, x3, #2, lo
	cset	w14, lo
	cmp	x2, x10
	ccmp	x1, x3, #2, lo
	cset	w15, lo
	cmp	x16, x10
	ccmp	x1, x5, #2, lo
	cset	w16, lo
	cmp	x2, x0
	ccmp	x17, x3, #2, lo
	b.lo	LBB2_1051
; %bb.753:                              ; %vector.memcheck1280
	tbnz	w12, #0, LBB2_1051
; %bb.754:                              ; %vector.memcheck1280
	mov	x1, x4
	tbnz	w13, #0, LBB2_761
; %bb.755:                              ; %vector.memcheck1280
	tbnz	w14, #0, LBB2_761
; %bb.756:                              ; %vector.memcheck1280
	tbnz	w15, #0, LBB2_761
; %bb.757:                              ; %vector.memcheck1280
	tbnz	w16, #0, LBB2_761
; %bb.758:                              ; %vector.ph1313
	ldr	x17, [sp, #208]                 ; 8-byte Folded Reload
	and	x16, x11, #0x7ffffffffffffffe
	lsl	x15, x16, #3
	ubfx	x8, x8, #1, #1
	sub	x13, x10, x15
	add	x14, x9, x15
	add	x12, x17, x15
	sub	x15, x5, x15
	add	x17, x17, #8
	add	x9, x9, #8
	sub	x0, x5, #16
	sub	x10, x10, #16
	neg	x1, x16
LBB2_759:                               ; %vector.body1327
                                        ; =>This Inner Loop Header: Depth=1
	ldr	q0, [x0]
	adds	x1, x1, #2
	ldr	q1, [x17]
	ext.16b	v0, v0, v0, #8
	ext.16b	v1, v1, v1, #8
	str	q0, [x17], #16
	str	q1, [x0], #-16
	ldr	q0, [x9]
	ldr	q1, [x10]
	ext.16b	v0, v0, v0, #8
	ext.16b	v1, v1, v1, #8
	str	q0, [x10], #-16
	str	q1, [x9], #16
	b.ne	LBB2_759
; %bb.760:                              ; %middle.block1310
	mov	x1, x4
	cmp	x11, x16
	b.ne	LBB2_762
	b	LBB2_764
LBB2_761:
	mov	x8, x11
	ldr	x12, [sp, #208]                 ; 8-byte Folded Reload
	mov	x13, x10
	mov	x14, x9
	mov	x15, x5
LBB2_762:                               ; %.lr.ph194.i.i.preheader
	add	x9, x12, #8
	sub	x10, x13, #8
	add	x11, x14, #8
	sub	x12, x15, #8
LBB2_763:                               ; %.lr.ph194.i.i
                                        ; =>This Inner Loop Header: Depth=1
	ldr	x13, [x12]
	subs	x8, x8, #1
	ldr	x14, [x9]
	str	x13, [x9], #8
	str	x14, [x12], #-8
	ldr	x13, [x11]
	ldr	x14, [x10]
	str	x13, [x10], #-8
	str	x14, [x11], #8
	b.ne	LBB2_763
LBB2_764:
	mov	x26, xzr
LBB2_765:                               ; %sort.quad_reversal.exit369.i.i
	ldr	x8, [sp, #80]                   ; 8-byte Folded Reload
	cmp	x8, #1
	b.ne	LBB2_771
; %bb.766:                              ; %sort.quad_reversal.exit369.i.i
	ldr	x8, [sp, #288]                  ; 8-byte Folded Reload
	cbz	x8, LBB2_771
; %bb.767:
	ldr	x12, [sp, #336]                 ; 8-byte Folded Reload
	ldr	x10, [sp, #224]                 ; 8-byte Folded Reload
	sub	x11, x12, x10
	lsr	x8, x11, #4
	lsl	x9, x8, #3
	add	x10, x10, x9
	sub	x9, x12, x9
	tbnz	w11, #4, LBB2_769
; %bb.768:
	ldr	x11, [x9]
	sub	x8, x8, #1
	ldr	x12, [x10]
	str	x11, [x10], #-8
	str	x12, [x9], #8
LBB2_769:                               ; %._crit_edge.i370.i.i
	ldr	x13, [sp, #336]                 ; 8-byte Folded Reload
	cmp	x8, #2
	ldr	x14, [sp, #224]                 ; 8-byte Folded Reload
	ldr	x11, [x13]
	ldr	x12, [x14]
	str	x11, [x14]
	str	x12, [x13]
	ldr	x11, [x9]
	ldr	x12, [x10]
	str	x11, [x10]
	str	x12, [x9]
	b.hs	LBB2_772
; %bb.770:
	ldr	w5, [sp, #256]                  ; 4-byte Folded Reload
	b	LBB2_788
LBB2_771:
	ldr	w5, [sp, #256]                  ; 4-byte Folded Reload
	b	LBB2_789
LBB2_772:                               ; %.lr.ph200.preheader.i.i
	lsr	x11, x8, #1
	cmp	x8, #48
	b.lo	LBB2_785
; %bb.773:                              ; %vector.scevcheck1342
	ldr	x13, [sp, #336]                 ; 8-byte Folded Reload
	sub	x12, x11, #1
	sub	x14, x13, #8
	lsl	x13, x12, #3
	sub	x15, x14, x13
	cmp	x15, x14
	b.hi	LBB2_785
; %bb.774:                              ; %vector.scevcheck1342
	sub	x14, x10, #8
	sub	x13, x14, x13
	cmp	x13, x14
	b.hi	LBB2_785
; %bb.775:                              ; %vector.scevcheck1342
	lsr	x12, x12, #61
	cbnz	x12, LBB2_785
; %bb.776:                              ; %vector.memcheck1351
	mov	x21, x20
	ldr	x20, [sp, #336]                 ; 8-byte Folded Reload
	add	x17, x5, #16
	lsl	x13, x11, #3
	add	x0, x17, x13
	mov	x4, x1
	sub	x16, x20, x13
	cmp	x17, x20
	ccmp	x16, x0, #2, lo
	sub	x1, x10, x13
	add	x2, x9, #8
	add	x3, x2, x13
	cset	w12, lo
	cmp	x17, x10
	ccmp	x1, x0, #2, lo
	cset	w13, lo
	cmp	x2, x20
	ccmp	x16, x3, #2, lo
	cset	w14, lo
	cmp	x2, x10
	ccmp	x1, x3, #2, lo
	cset	w15, lo
	cmp	x16, x10
	ccmp	x1, x20, #2, lo
	cset	w16, lo
	cmp	x2, x0
	ccmp	x17, x3, #2, lo
	b.lo	LBB2_1052
; %bb.777:                              ; %vector.memcheck1351
	tbnz	w12, #0, LBB2_1052
; %bb.778:                              ; %vector.memcheck1351
	mov	x1, x4
	mov	x20, x21
	tbnz	w13, #0, LBB2_785
; %bb.779:                              ; %vector.memcheck1351
	tbnz	w14, #0, LBB2_785
; %bb.780:                              ; %vector.memcheck1351
	tbnz	w15, #0, LBB2_785
; %bb.781:                              ; %vector.memcheck1351
	tbnz	w16, #0, LBB2_785
; %bb.782:                              ; %vector.ph1384
	ldr	x12, [sp, #224]                 ; 8-byte Folded Reload
	and	x15, x11, #0x7ffffffffffffffe
	lsl	x14, x15, #3
	ldr	x17, [sp, #336]                 ; 8-byte Folded Reload
	ubfx	x8, x8, #1, #1
	add	x13, x9, x14
	add	x12, x12, x14
	add	x16, x5, #16
	add	x9, x9, #8
	neg	x0, x15
	str	x12, [sp, #224]                 ; 8-byte Folded Spill
	sub	x12, x10, x14
	sub	x14, x17, x14
	sub	x17, x17, #16
	sub	x10, x10, #16
LBB2_783:                               ; %vector.body1398
                                        ; =>This Inner Loop Header: Depth=1
	ldr	q0, [x17]
	adds	x0, x0, #2
	ldr	q1, [x16]
	ext.16b	v0, v0, v0, #8
	ext.16b	v1, v1, v1, #8
	str	q0, [x16], #16
	str	q1, [x17], #-16
	ldr	q0, [x9]
	ldr	q1, [x10]
	ext.16b	v0, v0, v0, #8
	ext.16b	v1, v1, v1, #8
	str	q0, [x10], #-16
	str	q1, [x9], #16
	b.ne	LBB2_783
; %bb.784:                              ; %middle.block1381
	ldr	w5, [sp, #256]                  ; 4-byte Folded Reload
	cmp	x11, x15
	b.ne	LBB2_786
	b	LBB2_788
LBB2_785:
	mov	x8, x11
	mov	x12, x10
	mov	x13, x9
	ldr	x14, [sp, #336]                 ; 8-byte Folded Reload
	ldr	w5, [sp, #256]                  ; 4-byte Folded Reload
LBB2_786:                               ; %.lr.ph200.i.i.preheader
	ldr	x9, [sp, #224]                  ; 8-byte Folded Reload
	sub	x10, x12, #8
	add	x11, x13, #8
	sub	x12, x14, #8
	add	x9, x9, #8
LBB2_787:                               ; %.lr.ph200.i.i
                                        ; =>This Inner Loop Header: Depth=1
	ldr	x13, [x12]
	subs	x8, x8, #1
	ldr	x14, [x9]
	str	x13, [x9], #8
	str	x14, [x12], #-8
	ldr	x13, [x11]
	ldr	x14, [x10]
	str	x13, [x10], #-8
	str	x14, [x11], #8
	b.ne	LBB2_787
LBB2_788:                               ; %sort.quad_reversal.exit379.i.i
	str	xzr, [sp, #288]                 ; 8-byte Folded Spill
LBB2_789:                               ; %sort.quad_reversal.exit379.i.i
	ldr	x8, [sp, #88]                   ; 8-byte Folded Reload
	cmp	x8, #1
	b.ne	LBB2_807
; %bb.790:                              ; %sort.quad_reversal.exit379.i.i
	cbz	x25, LBB2_807
; %bb.791:
	ldr	x12, [sp, #344]                 ; 8-byte Folded Reload
	sub	x11, x12, x20
	lsr	x8, x11, #4
	lsl	x9, x8, #3
	add	x10, x20, x9
	sub	x9, x12, x9
	tbnz	w11, #4, LBB2_793
; %bb.792:
	ldr	x11, [x9]
	sub	x8, x8, #1
	ldr	x12, [x10]
	str	x11, [x10], #-8
	str	x12, [x9], #8
LBB2_793:                               ; %._crit_edge.i380.i.i
	ldr	x13, [sp, #344]                 ; 8-byte Folded Reload
	cmp	x8, #2
	ldr	x12, [x20]
	ldr	x11, [x13]
	str	x11, [x20]
	str	x12, [x13]
	ldr	x11, [x9]
	ldr	x12, [x10]
	str	x11, [x10]
	str	x12, [x9]
	b.lo	LBB2_811
; %bb.794:                              ; %.lr.ph206.preheader.i.i
	lsr	x11, x8, #1
	cmp	x8, #48
	b.lo	LBB2_808
; %bb.795:                              ; %vector.scevcheck1413
	ldr	x13, [sp, #344]                 ; 8-byte Folded Reload
	sub	x12, x11, #1
	sub	x14, x13, #8
	lsl	x13, x12, #3
	sub	x15, x14, x13
	cmp	x15, x14
	b.hi	LBB2_808
; %bb.796:                              ; %vector.scevcheck1413
	sub	x14, x10, #8
	sub	x13, x14, x13
	cmp	x13, x14
	b.hi	LBB2_808
; %bb.797:                              ; %vector.scevcheck1413
	lsr	x12, x12, #61
	cbnz	x12, LBB2_808
; %bb.798:                              ; %vector.memcheck1422
	mov	x21, x20
	lsl	x13, x11, #3
	ldp	x12, x20, [sp, #336]            ; 16-byte Folded Reload
	mov	x4, x1
	sub	x1, x10, x13
	add	x2, x9, #8
	add	x3, x2, x13
	add	x17, x12, #16
	add	x0, x17, x13
	sub	x16, x20, x13
	cmp	x17, x20
	ccmp	x16, x0, #2, lo
	cset	w12, lo
	cmp	x17, x10
	ccmp	x1, x0, #2, lo
	cset	w13, lo
	cmp	x2, x20
	ccmp	x16, x3, #2, lo
	cset	w14, lo
	cmp	x2, x10
	ccmp	x1, x3, #2, lo
	cset	w15, lo
	cmp	x16, x10
	ccmp	x1, x20, #2, lo
	cset	w16, lo
	cmp	x2, x0
	ccmp	x17, x3, #2, lo
	b.lo	LBB2_1050
; %bb.799:                              ; %vector.memcheck1422
	tbnz	w12, #0, LBB2_1050
; %bb.800:                              ; %vector.memcheck1422
	mov	x1, x4
	mov	x20, x21
	tbnz	w13, #0, LBB2_808
; %bb.801:                              ; %vector.memcheck1422
	tbnz	w14, #0, LBB2_808
; %bb.802:                              ; %vector.memcheck1422
	tbnz	w15, #0, LBB2_808
; %bb.803:                              ; %vector.memcheck1422
	tbnz	w16, #0, LBB2_808
; %bb.804:                              ; %vector.ph1455
	ldp	x16, x17, [sp, #336]            ; 16-byte Folded Reload
	and	x15, x11, #0x7ffffffffffffffe
	ubfx	x8, x8, #1, #1
	lsl	x14, x15, #3
	neg	x0, x15
	add	x20, x20, x14
	sub	x12, x10, x14
	add	x13, x9, x14
	add	x16, x16, #16
	sub	x14, x17, x14
	add	x9, x9, #8
	sub	x17, x17, #16
	sub	x10, x10, #16
LBB2_805:                               ; %vector.body1469
                                        ; =>This Inner Loop Header: Depth=1
	ldr	q0, [x17]
	adds	x0, x0, #2
	ldr	q1, [x16]
	ext.16b	v0, v0, v0, #8
	ext.16b	v1, v1, v1, #8
	str	q0, [x16], #16
	str	q1, [x17], #-16
	ldr	q0, [x9]
	ldr	q1, [x10]
	ext.16b	v0, v0, v0, #8
	ext.16b	v1, v1, v1, #8
	str	q0, [x10], #-16
	str	q1, [x9], #16
	b.ne	LBB2_805
; %bb.806:                              ; %middle.block1452
	cmp	x11, x15
	b.ne	LBB2_809
	b	LBB2_811
LBB2_807:
	ldr	x23, [sp, #288]                 ; 8-byte Folded Reload
	b	LBB2_813
LBB2_808:
	ldr	x14, [sp, #344]                 ; 8-byte Folded Reload
	mov	x8, x11
	mov	x12, x10
	mov	x13, x9
LBB2_809:                               ; %.lr.ph206.i.i.preheader
	add	x9, x20, #8
	sub	x10, x12, #8
	add	x11, x13, #8
	sub	x12, x14, #8
LBB2_810:                               ; %.lr.ph206.i.i
                                        ; =>This Inner Loop Header: Depth=1
	ldr	x13, [x12]
	subs	x8, x8, #1
	ldr	x14, [x9]
	str	x13, [x9], #8
	str	x14, [x12], #-8
	ldr	x13, [x11]
	ldr	x14, [x10]
	str	x13, [x10], #-8
	str	x14, [x11], #8
	b.ne	LBB2_810
LBB2_811:
	ldr	x23, [sp, #288]                 ; 8-byte Folded Reload
LBB2_812:                               ; %sort.quad_reversal.exit389.i.i
	mov	x25, xzr
LBB2_813:                               ; %sort.quad_reversal.exit389.i.i
	ldr	x8, [sp, #280]                  ; 8-byte Folded Reload
	cmp	x8, #1
	b.ne	LBB2_961
; %bb.814:                              ; %sort.quad_reversal.exit389.i.i
	cbz	x1, LBB2_961
; %bb.815:
	ldr	x1, [sp, #72]                   ; 8-byte Folded Reload
	sub	x11, x6, x1
	lsr	x8, x11, #4
	lsl	x9, x8, #3
	add	x10, x1, x9
	sub	x9, x6, x9
	tbnz	w11, #4, LBB2_817
; %bb.816:
	ldr	x11, [x9]
	sub	x8, x8, #1
	ldr	x12, [x10]
	str	x11, [x10], #-8
	str	x12, [x9], #8
LBB2_817:                               ; %._crit_edge.i390.i.i
	ldr	x11, [x6]
	cmp	x8, #2
	ldr	x12, [x1]
	str	x11, [x1]
	str	x12, [x6]
	ldr	x11, [x9]
	ldr	x12, [x10]
	str	x11, [x10]
	str	x12, [x9]
	b.lo	LBB2_960
; %bb.818:                              ; %.lr.ph212.preheader.i.i
	lsr	x11, x8, #1
	cmp	x8, #48
	b.lo	LBB2_957
; %bb.819:                              ; %vector.scevcheck1484
	sub	x12, x11, #1
	sub	x14, x6, #8
	lsl	x13, x12, #3
	sub	x15, x14, x13
	cmp	x15, x14
	b.hi	LBB2_957
; %bb.820:                              ; %vector.scevcheck1484
	sub	x14, x10, #8
	sub	x13, x14, x13
	cmp	x13, x14
	b.hi	LBB2_957
; %bb.821:                              ; %vector.scevcheck1484
	lsr	x12, x12, #61
	cbnz	x12, LBB2_957
; %bb.822:                              ; %vector.memcheck1493
	ldr	x12, [sp, #344]                 ; 8-byte Folded Reload
	lsl	x13, x11, #3
	sub	x16, x6, x13
	sub	x1, x10, x13
	add	x2, x9, #8
	add	x17, x12, #16
	add	x3, x2, x13
	add	x0, x17, x13
	cmp	x17, x6
	ccmp	x16, x0, #2, lo
	cset	w12, lo
	cmp	x17, x10
	ccmp	x1, x0, #2, lo
	cset	w13, lo
	cmp	x2, x6
	ccmp	x16, x3, #2, lo
	cset	w14, lo
	cmp	x2, x10
	ccmp	x1, x3, #2, lo
	cset	w15, lo
	cmp	x16, x10
	ccmp	x1, x6, #2, lo
	cset	w16, lo
	cmp	x2, x0
	ccmp	x17, x3, #2, lo
	b.lo	LBB2_956
; %bb.823:                              ; %vector.memcheck1493
	tbnz	w12, #0, LBB2_956
; %bb.824:                              ; %vector.memcheck1493
	ldr	x1, [sp, #72]                   ; 8-byte Folded Reload
	tbnz	w13, #0, LBB2_957
; %bb.825:                              ; %vector.memcheck1493
	tbnz	w14, #0, LBB2_957
; %bb.826:                              ; %vector.memcheck1493
	tbnz	w15, #0, LBB2_957
; %bb.827:                              ; %vector.memcheck1493
	tbnz	w16, #0, LBB2_957
; %bb.828:                              ; %vector.ph1526
	ldr	x16, [sp, #344]                 ; 8-byte Folded Reload
	and	x15, x11, #0x7ffffffffffffffe
	lsl	x14, x15, #3
	ubfx	x8, x8, #1, #1
	add	x1, x1, x14
	sub	x12, x10, x14
	add	x13, x9, x14
	sub	x14, x6, x14
	add	x16, x16, #16
	add	x9, x9, #8
	sub	x17, x6, #16
	sub	x10, x10, #16
	neg	x0, x15
LBB2_829:                               ; %vector.body1540
                                        ; =>This Inner Loop Header: Depth=1
	ldr	q0, [x17]
	adds	x0, x0, #2
	ldr	q1, [x16]
	ext.16b	v0, v0, v0, #8
	ext.16b	v1, v1, v1, #8
	str	q0, [x16], #16
	str	q1, [x17], #-16
	ldr	q0, [x9]
	ldr	q1, [x10]
	ext.16b	v0, v0, v0, #8
	ext.16b	v1, v1, v1, #8
	str	q0, [x10], #-16
	str	q1, [x9], #16
	b.ne	LBB2_829
; %bb.830:                              ; %middle.block1523
	cmp	x11, x15
	b.eq	LBB2_960
	b	LBB2_958
LBB2_831:
	ldr	x12, [sp, #208]                 ; 8-byte Folded Reload
	mov	x8, x11
	ldr	x15, [sp, #344]                 ; 8-byte Folded Reload
	mov	x13, x10
	mov	x14, x9
LBB2_832:                               ; %.lr.ph191.i.i.preheader
	add	x9, x12, #8
	sub	x10, x13, #8
	add	x11, x14, #8
	sub	x12, x15, #8
	mov	x24, x23
LBB2_833:                               ; %.lr.ph191.i.i
                                        ; =>This Inner Loop Header: Depth=1
	ldr	x13, [x12]
	subs	x8, x8, #1
	ldr	x14, [x9]
	str	x13, [x9], #8
	str	x14, [x12], #-8
	ldr	x13, [x11]
	ldr	x14, [x10]
	str	x13, [x10], #-8
	str	x14, [x11], #8
	b.ne	LBB2_833
; %bb.834:
	mov	x30, xzr
	b	LBB2_1105
LBB2_835:
	ldr	x0, [sp, #240]                  ; 8-byte Folded Reload
	mov	x2, x27
	ldr	x1, [sp, #104]                  ; 8-byte Folded Reload
	mov	x3, x24
	mov	x4, x28
	ldr	x5, [sp, #264]                  ; 8-byte Folded Reload
	mov	x6, x22
	bl	l_sort.quad_swap__anon_14834
	tbz	w0, #0, LBB2_837
; %bb.836:
	ldr	x19, [sp, #240]                 ; 8-byte Folded Reload
	mov	x2, x23
	ldr	x21, [sp, #104]                 ; 8-byte Folded Reload
	mov	x3, x20
	ldr	x25, [sp, #264]                 ; 8-byte Folded Reload
	mov	x4, x27
	mov	x0, x19
	mov	x5, x24
	mov	x1, x21
	mov	x6, x28
	mov	x7, x25
	mov	x26, x28
	str	x22, [sp]
	bl	l_sort.quad_merge__anon_14835
	mov	x4, x0
	mov	x0, x19
	mov	x1, x21
	mov	x2, x23
	mov	x3, x20
	mov	x5, x27
	mov	x6, x24
	mov	x7, x28
	stp	x25, x22, [sp]
	bl	l_sort.rotate_merge__anon_14836
LBB2_837:                               ; %sort.quadsort_swap__anon_14855.exit.i.i
	ldr	x8, [sp, #96]                   ; 8-byte Folded Reload
	mov	x7, x28
	ldr	x9, [sp, #112]                  ; 8-byte Folded Reload
	add	x4, x9, x8
	ldr	x8, [sp, #320]                  ; 8-byte Folded Reload
	b	LBB2_841
LBB2_838:
	mov	x0, x20
	mov	x2, x27
	mov	x3, x24
	mov	x4, x28
	ldr	x5, [sp, #264]                  ; 8-byte Folded Reload
	mov	x6, x22
	bl	l_sort.quad_swap__anon_14834
	tbz	w0, #0, LBB2_840
; %bb.839:
	ldr	x21, [sp, #112]                 ; 8-byte Folded Reload
	mov	x0, x20
	ldr	x25, [sp, #264]                 ; 8-byte Folded Reload
	mov	x2, x23
	mov	x3, x19
	mov	x4, x27
	mov	x1, x21
	mov	x5, x24
	mov	x6, x28
	mov	x7, x25
	mov	x26, x28
	str	x22, [sp]
	bl	l_sort.quad_merge__anon_14835
	mov	x4, x0
	mov	x0, x20
	mov	x1, x21
	mov	x2, x23
	mov	x3, x19
	mov	x5, x27
	mov	x6, x24
	mov	x7, x28
	stp	x25, x22, [sp]
	bl	l_sort.rotate_merge__anon_14836
LBB2_840:                               ; %sort.quadsort_swap__anon_14855.exit424.i.i
	ldr	x4, [sp, #96]                   ; 8-byte Folded Reload
	mov	x7, x28
	ldr	x8, [sp, #344]                  ; 8-byte Folded Reload
LBB2_841:                               ; %sort.quadsort_swap__anon_14855.exit428.i.i
	madd	x3, x4, x28, x23
	add	x0, x8, x28
LBB2_842:                               ; %sort.quadsort_swap__anon_14855.exit428.i.i
	mov	x1, x23
	mov	x2, x0
	mov	x5, x27
	mov	x6, x24
LBB2_843:                               ; %sort.quadsort_swap__anon_14855.exit428.i.i
	ldr	x8, [sp, #264]                  ; 8-byte Folded Reload
	stp	x8, x22, [sp]
	bl	l_sort.flux_partition__anon_14854
	mov	x25, x22
LBB2_844:                               ; %sort.quadsort_swap__anon_14855.exit428.i.i
	ldr	x19, [sp, #320]                 ; 8-byte Folded Reload
	mov	x0, x24
	mov	w1, #1
	mov	x22, x28
	add	x20, x19, x28
	blr	x25
	mov	x0, x24
	mov	x1, x19
	mov	x2, x20
	blr	x27
	ldr	x21, [sp, #304]                 ; 8-byte Folded Reload
	and	w19, w0, #0xff
	mov	x0, x24
	mov	w1, #1
	add	x20, x21, x28
	blr	x25
	mov	x0, x24
	mov	x1, x21
	mov	x2, x20
	blr	x27
	and	w8, w0, #0xff
	cmp	w19, #1
	b.ne	LBB2_847
; %bb.845:
	ldr	x9, [sp, #72]                   ; 8-byte Folded Reload
	cmp	w8, #1
	ldr	x8, [sp, #344]                  ; 8-byte Folded Reload
	add	x0, x23, x9
	b.ne	LBB2_849
; %bb.846:
	ldr	x20, [sp, #264]                 ; 8-byte Folded Reload
	add	x1, x8, x28
	ldp	x2, x3, [sp, #128]              ; 16-byte Folded Reload
	mov	x4, x27
	mov	x5, x24
	mov	x6, x28
	mov	x7, x20
	mov	x21, x28
	str	x25, [sp]
	bl	l_sort.cross_merge__anon_14856
	ldp	x2, x3, [sp, #104]              ; 16-byte Folded Reload
	mov	x0, x23
	mov	x4, x27
	ldr	x19, [sp, #240]                 ; 8-byte Folded Reload
	mov	x5, x24
	mov	x6, x28
	mov	x7, x20
	mov	x1, x19
	b	LBB2_850
LBB2_847:
	ldr	x19, [sp, #344]                 ; 8-byte Folded Reload
	cmp	w8, #1
	b.ne	LBB2_852
; %bb.848:
	ldp	x1, x20, [sp, #64]              ; 16-byte Folded Reload
	mov	x4, x27
	mov	x5, x24
	ldp	x2, x3, [sp, #128]              ; 16-byte Folded Reload
	mov	x6, x28
	str	x25, [sp]
	ldr	x7, [sp, #264]                  ; 8-byte Folded Reload
	add	x0, x23, x20
	bl	l_sort.cross_merge__anon_14856
	ldr	x19, [sp, #240]                 ; 8-byte Folded Reload
	mov	x0, x23
	mov	x2, x20
	mov	x1, x19
	bl	_memcpy
	b	LBB2_851
LBB2_849:
	ldr	x8, [sp, #96]                   ; 8-byte Folded Reload
	mov	x20, x28
	ldr	x1, [sp, #64]                   ; 8-byte Folded Reload
	mul	x2, x8, x28
	bl	_memcpy
	ldr	x19, [sp, #240]                 ; 8-byte Folded Reload
	mov	x0, x23
	ldp	x2, x3, [sp, #104]              ; 16-byte Folded Reload
	mov	x4, x27
	mov	x5, x24
	mov	x1, x19
	mov	x6, x28
	ldr	x7, [sp, #264]                  ; 8-byte Folded Reload
LBB2_850:
	str	x25, [sp]
	bl	l_sort.cross_merge__anon_14856
LBB2_851:
	mov	x0, x19
	mov	x1, x23
	ldr	x2, [sp, #80]                   ; 8-byte Folded Reload
	mov	x4, x27
	ldr	x3, [sp, #96]                   ; 8-byte Folded Reload
	mov	x5, x24
	mov	x6, x28
	ldr	x7, [sp, #264]                  ; 8-byte Folded Reload
	str	x25, [sp]
	bl	l_sort.cross_merge__anon_14856
	b	LBB2_916
LBB2_852:
	mov	x0, x24
	mov	w1, #1
	add	x20, x19, x28
	blr	x25
	mov	x0, x24
	mov	x1, x19
	mov	x2, x20
	blr	x27
	and	w8, w0, #0xff
	cmp	w8, #1
	b.ne	LBB2_916
; %bb.853:
	ldr	x23, [sp, #152]                 ; 8-byte Folded Reload
	ldr	x19, [sp, #240]                 ; 8-byte Folded Reload
	ldr	x2, [sp, #120]                  ; 8-byte Folded Reload
	mov	x0, x23
	mov	x1, x19
	bl	_memcpy
	ldr	x27, [sp, #328]                 ; 8-byte Folded Reload
	b	LBB2_851
LBB2_854:
	ldr	x0, [sp, #240]                  ; 8-byte Folded Reload
	mov	x2, x27
	ldr	x1, [sp, #104]                  ; 8-byte Folded Reload
	mov	x3, x25
	mov	x4, x28
	ldr	x5, [sp, #264]                  ; 8-byte Folded Reload
	mov	x6, x22
	bl	l_sort.quad_swap__anon_14834
	tbz	w0, #0, LBB2_856
; %bb.855:
	ldr	x19, [sp, #240]                 ; 8-byte Folded Reload
	mov	x2, x23
	ldr	x20, [sp, #104]                 ; 8-byte Folded Reload
	mov	x3, x21
	ldr	x26, [sp, #264]                 ; 8-byte Folded Reload
	mov	x4, x27
	mov	x0, x19
	mov	x5, x25
	mov	x1, x20
	ldr	x6, [sp, #352]                  ; 8-byte Folded Reload
	mov	x7, x26
	mov	x28, x25
	str	x22, [sp]
	bl	l_sort.quad_merge__anon_14835
	mov	x4, x0
	mov	x0, x19
	mov	x1, x20
	mov	x2, x23
	mov	x3, x21
	mov	x5, x27
	mov	x6, x25
	ldr	x7, [sp, #352]                  ; 8-byte Folded Reload
	stp	x26, x22, [sp]
	mov	x28, x7
	bl	l_sort.rotate_merge__anon_14836
LBB2_856:                               ; %sort.quadsort_swap__anon_14855.exit425.i.i
	cbz	x24, LBB2_897
; %bb.857:
	ldr	x8, [sp, #320]                  ; 8-byte Folded Reload
	ldr	x1, [sp, #112]                  ; 8-byte Folded Reload
	add	x20, x8, x28
	cmp	x1, #95
	b.hi	LBB2_895
; %bb.858:
	mov	x0, x20
	mov	x2, x23
	mov	x3, x27
	mov	x4, x25
	mov	x5, x28
	ldr	x6, [sp, #264]                  ; 8-byte Folded Reload
	mov	x7, x22
	bl	l_sort.tail_swap__anon_14832
	b	LBB2_897
LBB2_859:
	mov	x0, x20
	ldr	x1, [sp, #128]                  ; 8-byte Folded Reload
	mov	x2, x27
	mov	x3, x24
	mov	x4, x28
	ldr	x5, [sp, #264]                  ; 8-byte Folded Reload
	mov	x6, x22
	bl	l_sort.quad_swap__anon_14834
	tbz	w0, #0, LBB2_861
; %bb.860:
	ldr	x21, [sp, #128]                 ; 8-byte Folded Reload
	mov	x0, x20
	ldr	x25, [sp, #264]                 ; 8-byte Folded Reload
	mov	x2, x23
	mov	x3, x19
	mov	x4, x27
	mov	x1, x21
	mov	x5, x24
	mov	x6, x28
	mov	x7, x25
	mov	x26, x28
	str	x22, [sp]
	bl	l_sort.quad_merge__anon_14835
	mov	x4, x0
	mov	x0, x20
	mov	x1, x21
	mov	x2, x23
	mov	x3, x19
	mov	x5, x27
	mov	x6, x24
	mov	x7, x28
	ldr	x21, [sp, #304]                 ; 8-byte Folded Reload
	stp	x25, x22, [sp]
	bl	l_sort.rotate_merge__anon_14836
LBB2_861:                               ; %sort.quadsort_swap__anon_14855.exit427.i.i
	ldr	x4, [sp, #136]                  ; 8-byte Folded Reload
	mov	x7, x28
	add	x0, x21, x28
	madd	x3, x4, x28, x23
	b	LBB2_842
LBB2_862:
	ldr	x0, [sp, #240]                  ; 8-byte Folded Reload
	mov	x2, x27
	ldr	x1, [sp, #104]                  ; 8-byte Folded Reload
	mov	x3, x24
	mov	x4, x28
	ldr	x5, [sp, #264]                  ; 8-byte Folded Reload
	mov	x6, x22
	bl	l_sort.quad_swap__anon_14834
	tbz	w0, #0, LBB2_864
; %bb.863:
	ldr	x25, [sp, #240]                 ; 8-byte Folded Reload
	mov	x2, x23
	ldr	x20, [sp, #104]                 ; 8-byte Folded Reload
	mov	x3, x21
	mov	x4, x27
	mov	x5, x24
	mov	x0, x25
	mov	x6, x28
	mov	x1, x20
	ldr	x7, [sp, #264]                  ; 8-byte Folded Reload
	mov	x26, x28
	str	x22, [sp]
	bl	l_sort.quad_merge__anon_14835
	mov	x4, x0
	mov	x0, x25
	mov	x1, x20
	mov	x2, x23
	mov	x3, x21
	mov	x5, x27
	mov	x6, x24
	mov	x7, x28
	ldr	x9, [sp, #248]                  ; 8-byte Folded Reload
	ldr	x8, [sp, #264]                  ; 8-byte Folded Reload
	stp	x8, x9, [sp]
	bl	l_sort.rotate_merge__anon_14836
LBB2_864:                               ; %sort.quadsort_swap__anon_14855.exit429.i.i
	ldr	x8, [sp, #112]                  ; 8-byte Folded Reload
	mov	x7, x28
	ldr	x9, [sp, #128]                  ; 8-byte Folded Reload
	mov	x1, x23
	mov	x5, x27
	mov	x6, x24
	mov	x25, x22
	add	x4, x9, x8
	ldr	x8, [sp, #320]                  ; 8-byte Folded Reload
	madd	x3, x4, x28, x23
	add	x0, x8, x28
	ldr	x8, [sp, #264]                  ; 8-byte Folded Reload
	mov	x2, x0
	stp	x8, x22, [sp]
	bl	l_sort.flux_partition__anon_14854
	cbz	x19, LBB2_844
; %bb.865:
	ldr	x8, [sp, #304]                  ; 8-byte Folded Reload
	ldr	x1, [sp, #136]                  ; 8-byte Folded Reload
	add	x20, x8, x28
	cmp	x1, #95
	b.hi	LBB2_898
; %bb.866:
	mov	x0, x20
	mov	x2, x23
	mov	x3, x27
	mov	x4, x24
	mov	x5, x28
	ldr	x6, [sp, #264]                  ; 8-byte Folded Reload
	mov	x7, x22
	mov	x25, x22
	bl	l_sort.tail_swap__anon_14832
	b	LBB2_844
LBB2_867:
	mov	x0, x20
	ldr	x1, [sp, #128]                  ; 8-byte Folded Reload
	mov	x2, x27
	mov	x3, x24
	mov	x4, x28
	ldr	x5, [sp, #264]                  ; 8-byte Folded Reload
	mov	x6, x21
	bl	l_sort.quad_swap__anon_14834
	tbz	w0, #0, LBB2_869
; %bb.868:
	ldr	x25, [sp, #128]                 ; 8-byte Folded Reload
	mov	x0, x20
	mov	x2, x23
	mov	x3, x19
	mov	x4, x27
	mov	x5, x24
	mov	x1, x25
	mov	x6, x28
	ldr	x7, [sp, #264]                  ; 8-byte Folded Reload
	mov	x26, x28
	str	x21, [sp]
	bl	l_sort.quad_merge__anon_14835
	mov	x4, x0
	mov	x0, x20
	mov	x1, x25
	mov	x2, x23
	mov	x3, x19
	mov	x5, x27
	mov	x6, x24
	mov	x7, x28
	ldr	x9, [sp, #248]                  ; 8-byte Folded Reload
	ldr	x8, [sp, #264]                  ; 8-byte Folded Reload
	stp	x8, x9, [sp]
	bl	l_sort.rotate_merge__anon_14836
LBB2_869:                               ; %sort.quadsort_swap__anon_14855.exit431.i.i
	mov	x25, x21
	cbz	x22, LBB2_844
; %bb.870:
	ldr	x8, [sp, #304]                  ; 8-byte Folded Reload
	ldr	x1, [sp, #136]                  ; 8-byte Folded Reload
	add	x20, x8, x28
	cmp	x1, #95
	b.hi	LBB2_900
; %bb.871:
	mov	x0, x20
	mov	x2, x23
	mov	x3, x27
	mov	x4, x24
	mov	x5, x28
	ldr	x6, [sp, #264]                  ; 8-byte Folded Reload
	mov	x7, x21
	mov	x25, x21
	bl	l_sort.tail_swap__anon_14832
	b	LBB2_844
LBB2_872:
	ldr	x0, [sp, #240]                  ; 8-byte Folded Reload
	mov	x3, x24
	ldr	x1, [sp, #112]                  ; 8-byte Folded Reload
	mov	x4, x28
	ldr	x2, [sp, #328]                  ; 8-byte Folded Reload
	ldr	x5, [sp, #264]                  ; 8-byte Folded Reload
	bl	l_sort.quad_swap__anon_14839
	tbz	w0, #0, LBB2_874
; %bb.873:
	ldr	x19, [sp, #240]                 ; 8-byte Folded Reload
	mov	x2, x23
	ldr	x21, [sp, #112]                 ; 8-byte Folded Reload
	mov	x3, x20
	ldr	x25, [sp, #328]                 ; 8-byte Folded Reload
	mov	x5, x24
	ldr	x26, [sp, #264]                 ; 8-byte Folded Reload
	mov	x0, x19
	mov	x1, x21
	mov	x6, x28
	mov	x4, x25
	mov	x27, x28
	mov	x7, x26
	bl	l_sort.quad_merge__anon_14840
	mov	x4, x0
	mov	x0, x19
	mov	x1, x21
	mov	x2, x23
	mov	x3, x20
	mov	x5, x25
	mov	x6, x24
	mov	x7, x28
	str	x26, [sp]
	bl	l_sort.rotate_merge__anon_14841
LBB2_874:                               ; %sort.quadsort_swap__anon_14858.exit.i.i
	ldr	x8, [sp, #128]                  ; 8-byte Folded Reload
	mov	x7, x28
	ldr	x9, [sp, #104]                  ; 8-byte Folded Reload
	add	x0, x22, x28
	add	x4, x9, x8
	madd	x3, x4, x28, x23
	b	LBB2_905
LBB2_875:
	mov	x0, x20
	ldr	x2, [sp, #328]                  ; 8-byte Folded Reload
	mov	x3, x24
	mov	x4, x28
	ldr	x5, [sp, #264]                  ; 8-byte Folded Reload
	bl	l_sort.quad_swap__anon_14839
	mov	x25, x23
	tbz	w0, #0, LBB2_877
; %bb.876:
	ldr	x21, [sp, #104]                 ; 8-byte Folded Reload
	mov	x0, x20
	ldr	x23, [sp, #328]                 ; 8-byte Folded Reload
	mov	x2, x25
	ldr	x26, [sp, #264]                 ; 8-byte Folded Reload
	mov	x3, x19
	mov	x1, x21
	mov	x5, x24
	mov	x4, x23
	mov	x6, x28
	mov	x7, x26
	mov	x27, x28
	bl	l_sort.quad_merge__anon_14840
	mov	x4, x0
	mov	x0, x20
	mov	x1, x21
	mov	x2, x25
	mov	x3, x19
	mov	x5, x23
	mov	x6, x24
	mov	x7, x28
	str	x26, [sp]
	bl	l_sort.rotate_merge__anon_14841
LBB2_877:                               ; %sort.quadsort_swap__anon_14858.exit422.i.i
	ldp	x8, x5, [sp, #320]              ; 16-byte Folded Reload
	mov	x7, x28
	mov	x1, x25
	ldr	x4, [sp, #128]                  ; 8-byte Folded Reload
	mov	x6, x24
	add	x0, x8, x28
	ldr	x8, [sp, #264]                  ; 8-byte Folded Reload
	madd	x3, x4, x28, x25
	mov	x2, x0
	str	x8, [sp]
	bl	l_sort.flux_partition__anon_14857
	mov	x23, x25
	b	LBB2_906
LBB2_878:
	ldr	x0, [sp, #240]                  ; 8-byte Folded Reload
	mov	x3, x24
	ldr	x2, [sp, #328]                  ; 8-byte Folded Reload
	mov	x4, x28
	ldr	x5, [sp, #264]                  ; 8-byte Folded Reload
	bl	l_sort.quad_swap__anon_14839
	tbz	w0, #0, LBB2_880
; %bb.879:
	ldr	x19, [sp, #240]                 ; 8-byte Folded Reload
	mov	x2, x23
	ldr	x25, [sp, #328]                 ; 8-byte Folded Reload
	mov	x3, x21
	ldr	x26, [sp, #264]                 ; 8-byte Folded Reload
	mov	x5, x24
	mov	x0, x19
	ldr	x1, [sp, #112]                  ; 8-byte Folded Reload
	mov	x4, x25
	mov	x6, x28
	mov	x7, x26
	mov	x20, x23
	mov	x27, x28
	bl	l_sort.quad_merge__anon_14840
	mov	x4, x0
	mov	x0, x19
	ldr	x1, [sp, #112]                  ; 8-byte Folded Reload
	mov	x2, x23
	mov	x3, x21
	mov	x5, x25
	mov	x6, x24
	mov	x7, x28
	str	x26, [sp]
	bl	l_sort.rotate_merge__anon_14841
LBB2_880:                               ; %sort.quadsort_swap__anon_14858.exit423.i.i
	ldr	x8, [sp, #216]                  ; 8-byte Folded Reload
	cbz	x8, LBB2_903
; %bb.881:
	ldr	x1, [sp, #104]                  ; 8-byte Folded Reload
	add	x20, x22, x28
	cmp	x1, #95
	b.hi	LBB2_901
; %bb.882:
	mov	x0, x20
	mov	x2, x23
	ldr	x3, [sp, #328]                  ; 8-byte Folded Reload
	mov	x4, x24
	mov	x5, x28
	ldr	x6, [sp, #264]                  ; 8-byte Folded Reload
	bl	l_sort.tail_swap__anon_14838
	b	LBB2_903
LBB2_883:
	mov	x0, x20
	ldr	x1, [sp, #144]                  ; 8-byte Folded Reload
	ldr	x2, [sp, #328]                  ; 8-byte Folded Reload
	mov	x3, x24
	mov	x4, x28
	ldr	x5, [sp, #264]                  ; 8-byte Folded Reload
	bl	l_sort.quad_swap__anon_14839
	tbz	w0, #0, LBB2_885
; %bb.884:
	ldr	x21, [sp, #144]                 ; 8-byte Folded Reload
	mov	x0, x20
	ldr	x25, [sp, #328]                 ; 8-byte Folded Reload
	mov	x2, x23
	ldr	x26, [sp, #264]                 ; 8-byte Folded Reload
	mov	x3, x19
	mov	x1, x21
	mov	x5, x24
	mov	x4, x25
	mov	x6, x28
	mov	x7, x26
	mov	x27, x28
	bl	l_sort.quad_merge__anon_14840
	mov	x4, x0
	mov	x0, x20
	mov	x1, x21
	mov	x2, x23
	mov	x3, x19
	mov	x5, x25
	mov	x6, x24
	mov	x7, x28
	ldr	x21, [sp, #344]                 ; 8-byte Folded Reload
	str	x26, [sp]
	bl	l_sort.rotate_merge__anon_14841
LBB2_885:                               ; %sort.quadsort_swap__anon_14858.exit425.i.i
	ldr	x4, [sp, #136]                  ; 8-byte Folded Reload
	mov	x7, x28
	add	x0, x21, x28
	madd	x3, x4, x28, x23
	b	LBB2_905
LBB2_886:
	ldr	x0, [sp, #240]                  ; 8-byte Folded Reload
	mov	x3, x24
	ldr	x1, [sp, #112]                  ; 8-byte Folded Reload
	mov	x4, x28
	ldr	x2, [sp, #328]                  ; 8-byte Folded Reload
	ldr	x5, [sp, #264]                  ; 8-byte Folded Reload
	bl	l_sort.quad_swap__anon_14839
	tbz	w0, #0, LBB2_888
; %bb.887:
	ldr	x19, [sp, #240]                 ; 8-byte Folded Reload
	str	x20, [sp, #256]                 ; 8-byte Folded Spill
	ldr	x20, [sp, #112]                 ; 8-byte Folded Reload
	mov	x2, x23
	ldr	x26, [sp, #328]                 ; 8-byte Folded Reload
	mov	x3, x21
	ldr	x27, [sp, #264]                 ; 8-byte Folded Reload
	mov	x0, x19
	mov	x1, x20
	mov	x5, x24
	mov	x4, x26
	mov	x6, x28
	mov	x7, x27
	mov	x25, x28
	bl	l_sort.quad_merge__anon_14840
	mov	x4, x0
	mov	x0, x19
	mov	x1, x20
	mov	x2, x23
	mov	x3, x21
	mov	x5, x26
	mov	x6, x24
	mov	x7, x28
	ldr	x20, [sp, #256]                 ; 8-byte Folded Reload
	str	x27, [sp]
	bl	l_sort.rotate_merge__anon_14841
LBB2_888:                               ; %sort.quadsort_swap__anon_14858.exit427.i.i
	ldr	x8, [sp, #104]                  ; 8-byte Folded Reload
	add	x0, x22, x28
	ldr	x9, [sp, #144]                  ; 8-byte Folded Reload
	mov	x7, x28
	mov	x1, x23
	mov	x2, x0
	ldr	x5, [sp, #328]                  ; 8-byte Folded Reload
	mov	x6, x24
	add	x4, x9, x8
	ldr	x8, [sp, #264]                  ; 8-byte Folded Reload
	madd	x3, x4, x28, x23
	str	x8, [sp]
	bl	l_sort.flux_partition__anon_14857
	cbz	x20, LBB2_906
; %bb.889:
	ldr	x8, [sp, #344]                  ; 8-byte Folded Reload
	ldr	x1, [sp, #136]                  ; 8-byte Folded Reload
	add	x20, x8, x28
	cmp	x1, #95
	b.ls	LBB2_627
; %bb.890:
	mov	x0, x20
	ldr	x2, [sp, #328]                  ; 8-byte Folded Reload
	mov	x3, x24
	mov	x4, x28
	ldr	x5, [sp, #264]                  ; 8-byte Folded Reload
	bl	l_sort.quad_swap__anon_14839
	tbz	w0, #0, LBB2_906
; %bb.891:
	ldr	x19, [sp, #136]                 ; 8-byte Folded Reload
	mov	x0, x20
	ldr	x25, [sp, #328]                 ; 8-byte Folded Reload
	mov	x2, x23
	ldr	x26, [sp, #264]                 ; 8-byte Folded Reload
	mov	x3, x21
	mov	x1, x19
	mov	x5, x24
	mov	x4, x25
	mov	x6, x28
	mov	x7, x26
	mov	x27, x28
	bl	l_sort.quad_merge__anon_14840
	mov	x4, x0
	mov	x0, x20
	mov	x1, x19
	mov	x2, x23
	mov	x3, x21
	b	LBB2_631
LBB2_892:
	mov	x0, x20
	ldr	x1, [sp, #144]                  ; 8-byte Folded Reload
	ldr	x2, [sp, #328]                  ; 8-byte Folded Reload
	mov	x3, x24
	mov	x4, x28
	ldr	x5, [sp, #264]                  ; 8-byte Folded Reload
	bl	l_sort.quad_swap__anon_14839
	tbz	w0, #0, LBB2_894
; %bb.893:
	ldr	x21, [sp, #144]                 ; 8-byte Folded Reload
	mov	x0, x20
	ldr	x26, [sp, #328]                 ; 8-byte Folded Reload
	mov	x2, x23
	ldr	x27, [sp, #264]                 ; 8-byte Folded Reload
	mov	x3, x19
	mov	x1, x21
	mov	x5, x24
	mov	x4, x26
	mov	x6, x28
	mov	x7, x27
	bl	l_sort.quad_merge__anon_14840
	mov	x4, x0
	mov	x0, x20
	mov	x1, x21
	mov	x2, x23
	mov	x3, x19
	mov	x5, x26
	mov	x6, x24
	ldr	x7, [sp, #352]                  ; 8-byte Folded Reload
	str	x27, [sp]
	bl	l_sort.rotate_merge__anon_14841
LBB2_894:                               ; %sort.quadsort_swap__anon_14858.exit429.i.i
	cbnz	x25, LBB2_626
	b	LBB2_906
LBB2_895:
	mov	x0, x20
	mov	x2, x27
	mov	x3, x25
	mov	x4, x28
	ldr	x5, [sp, #264]                  ; 8-byte Folded Reload
	mov	x6, x22
	bl	l_sort.quad_swap__anon_14834
	tbz	w0, #0, LBB2_897
; %bb.896:
	ldr	x19, [sp, #112]                 ; 8-byte Folded Reload
	mov	x0, x20
	mov	x2, x23
	mov	x3, x21
	mov	x4, x27
	mov	x5, x25
	mov	x1, x19
	mov	x6, x28
	ldr	x7, [sp, #264]                  ; 8-byte Folded Reload
	mov	x24, x25
	mov	x26, x28
	str	x22, [sp]
	bl	l_sort.quad_merge__anon_14835
	mov	x4, x0
	mov	x0, x20
	mov	x1, x19
	mov	x2, x23
	mov	x3, x21
	mov	x5, x27
	mov	x6, x25
	mov	x7, x28
	ldr	x8, [sp, #264]                  ; 8-byte Folded Reload
	stp	x8, x22, [sp]
	bl	l_sort.rotate_merge__anon_14836
LBB2_897:                               ; %sort.quadsort_swap__anon_14855.exit426.i.i
	ldr	x8, [sp, #344]                  ; 8-byte Folded Reload
	mov	x7, x28
	ldr	x4, [sp, #96]                   ; 8-byte Folded Reload
	mov	x1, x23
	mov	x5, x27
	mov	x24, x25
	add	x0, x8, x28
	mov	x6, x25
	madd	x3, x4, x28, x23
	mov	x2, x0
	b	LBB2_843
LBB2_898:
	mov	x0, x20
	mov	x2, x27
	mov	x3, x24
	mov	x4, x28
	ldr	x5, [sp, #264]                  ; 8-byte Folded Reload
	mov	x6, x22
	mov	x25, x22
	bl	l_sort.quad_swap__anon_14834
	tbz	w0, #0, LBB2_844
; %bb.899:
	ldr	x19, [sp, #136]                 ; 8-byte Folded Reload
	mov	x0, x20
	ldr	x22, [sp, #264]                 ; 8-byte Folded Reload
	mov	x2, x23
	mov	x3, x21
	mov	x4, x27
	mov	x1, x19
	mov	x5, x24
	mov	x6, x28
	mov	x7, x22
	mov	x26, x28
	str	x25, [sp]
	bl	l_sort.quad_merge__anon_14835
	mov	x4, x0
	mov	x0, x20
	mov	x1, x19
	mov	x2, x23
	mov	x3, x21
	b	LBB2_574
LBB2_900:
	ldr	x5, [sp, #264]                  ; 8-byte Folded Reload
	mov	x0, x20
	mov	x2, x27
	mov	x3, x24
	mov	x4, x28
	mov	x25, x21
	mov	x6, x21
	bl	l_sort.quad_swap__anon_14834
	tbnz	w0, #0, LBB2_573
	b	LBB2_844
LBB2_901:
	mov	x0, x20
	ldr	x2, [sp, #328]                  ; 8-byte Folded Reload
	mov	x3, x24
	mov	x4, x28
	ldr	x5, [sp, #264]                  ; 8-byte Folded Reload
	bl	l_sort.quad_swap__anon_14839
	tbz	w0, #0, LBB2_903
; %bb.902:
	ldr	x19, [sp, #104]                 ; 8-byte Folded Reload
	mov	x0, x20
	ldr	x26, [sp, #328]                 ; 8-byte Folded Reload
	mov	x2, x23
	ldr	x27, [sp, #264]                 ; 8-byte Folded Reload
	mov	x3, x21
	mov	x1, x19
	mov	x5, x24
	mov	x4, x26
	mov	x6, x28
	mov	x7, x27
	mov	x25, x23
	bl	l_sort.quad_merge__anon_14840
	mov	x4, x0
	mov	x0, x20
	mov	x1, x19
	mov	x2, x23
	mov	x3, x21
	mov	x5, x26
	mov	x6, x24
	ldr	x7, [sp, #352]                  ; 8-byte Folded Reload
	str	x27, [sp]
	bl	l_sort.rotate_merge__anon_14841
LBB2_903:                               ; %sort.quadsort_swap__anon_14858.exit424.i.i
	ldr	x4, [sp, #128]                  ; 8-byte Folded Reload
	mov	x7, x28
	ldr	x8, [sp, #320]                  ; 8-byte Folded Reload
LBB2_904:                               ; %sort.quadsort_swap__anon_14858.exit426.i.i
	madd	x3, x4, x28, x23
	add	x0, x8, x28
LBB2_905:                               ; %sort.quadsort_swap__anon_14858.exit426.i.i
	mov	x1, x23
	mov	x2, x0
	ldr	x5, [sp, #328]                  ; 8-byte Folded Reload
	mov	x6, x24
	ldr	x8, [sp, #264]                  ; 8-byte Folded Reload
	str	x8, [sp]
	bl	l_sort.flux_partition__anon_14857
LBB2_906:                               ; %sort.quadsort_swap__anon_14858.exit426.i.i
	add	x2, x22, x28
	mov	x0, x24
	mov	x1, x22
	ldr	x20, [sp, #328]                 ; 8-byte Folded Reload
	mov	x19, x28
	blr	x20
	ldr	x1, [sp, #344]                  ; 8-byte Folded Reload
	and	w19, w0, #0xff
	mov	x0, x24
	add	x2, x1, x28
	blr	x20
	and	w8, w0, #0xff
	cmp	w19, #1
	b.ne	LBB2_909
; %bb.907:
	ldr	x9, [sp, #80]                   ; 8-byte Folded Reload
	cmp	w8, #1
	add	x0, x23, x9
	b.ne	LBB2_911
; %bb.908:
	ldp	x8, x20, [sp, #320]             ; 16-byte Folded Reload
	mov	x5, x24
	mov	x6, x28
	ldr	x21, [sp, #264]                 ; 8-byte Folded Reload
	mov	x22, x28
	ldp	x3, x2, [sp, #136]              ; 16-byte Folded Reload
	add	x1, x8, x28
	mov	x4, x20
	mov	x7, x21
	bl	l_sort.cross_merge__anon_14859
	ldr	x19, [sp, #240]                 ; 8-byte Folded Reload
	mov	x0, x23
	ldp	x3, x2, [sp, #104]              ; 16-byte Folded Reload
	mov	x4, x20
	mov	x5, x24
	mov	x1, x19
	mov	x6, x28
	mov	x7, x21
	bl	l_sort.cross_merge__anon_14859
	b	LBB2_915
LBB2_909:
	cmp	w8, #1
	b.ne	LBB2_912
; %bb.910:
	ldr	x20, [sp, #80]                  ; 8-byte Folded Reload
	mov	x5, x24
	ldp	x3, x2, [sp, #136]              ; 16-byte Folded Reload
	mov	x6, x28
	add	x0, x23, x20
	ldr	x1, [sp, #96]                   ; 8-byte Folded Reload
	ldr	x4, [sp, #328]                  ; 8-byte Folded Reload
	ldr	x7, [sp, #264]                  ; 8-byte Folded Reload
	bl	l_sort.cross_merge__anon_14859
	ldr	x19, [sp, #240]                 ; 8-byte Folded Reload
	mov	x0, x23
	mov	x2, x20
	b	LBB2_914
LBB2_911:
	ldr	x8, [sp, #128]                  ; 8-byte Folded Reload
	mov	x20, x28
	ldr	x1, [sp, #96]                   ; 8-byte Folded Reload
	mul	x2, x8, x28
	bl	_memcpy
	ldr	x19, [sp, #240]                 ; 8-byte Folded Reload
	mov	x0, x23
	ldp	x3, x2, [sp, #104]              ; 16-byte Folded Reload
	mov	x5, x24
	mov	x6, x28
	mov	x1, x19
	ldr	x4, [sp, #328]                  ; 8-byte Folded Reload
	ldr	x7, [sp, #264]                  ; 8-byte Folded Reload
	bl	l_sort.cross_merge__anon_14859
	b	LBB2_915
LBB2_912:
	ldp	x1, x8, [sp, #320]              ; 16-byte Folded Reload
	mov	x0, x24
	add	x2, x1, x28
	blr	x8
	and	w8, w0, #0xff
	cmp	w8, #1
	b.ne	LBB2_916
; %bb.913:
	ldr	x23, [sp, #152]                 ; 8-byte Folded Reload
	ldr	x19, [sp, #240]                 ; 8-byte Folded Reload
	ldr	x2, [sp, #120]                  ; 8-byte Folded Reload
	mov	x0, x23
LBB2_914:
	mov	x1, x19
	bl	_memcpy
LBB2_915:
	mov	x0, x19
	mov	x1, x23
	ldr	x2, [sp, #88]                   ; 8-byte Folded Reload
	mov	x5, x24
	ldr	x3, [sp, #128]                  ; 8-byte Folded Reload
	mov	x6, x28
	ldr	x4, [sp, #328]                  ; 8-byte Folded Reload
	ldr	x7, [sp, #264]                  ; 8-byte Folded Reload
	bl	l_sort.cross_merge__anon_14859
LBB2_916:                               ; %sort.quadsort.exit
	ldr	x0, [sp, #152]                  ; 8-byte Folded Reload
	ldr	w1, [sp, #164]                  ; 4-byte Folded Reload
	bl	_roc_dealloc
	add	sp, sp, #1, lsl #12             ; =4096
	.cfi_def_cfa_offset 976
	add	sp, sp, #880
	.cfi_def_cfa_offset 96
	ldp	x29, x30, [sp, #80]             ; 16-byte Folded Reload
	ldp	x20, x19, [sp, #64]             ; 16-byte Folded Reload
	ldp	x22, x21, [sp, #48]             ; 16-byte Folded Reload
	ldp	x24, x23, [sp, #32]             ; 16-byte Folded Reload
	ldp	x26, x25, [sp, #16]             ; 16-byte Folded Reload
	ldp	x28, x27, [sp], #96             ; 16-byte Folded Reload
	.cfi_def_cfa_offset 0
	.cfi_restore w30
	.cfi_restore w29
	.cfi_restore w19
	.cfi_restore w20
	.cfi_restore w21
	.cfi_restore w22
	.cfi_restore w23
	.cfi_restore w24
	.cfi_restore w25
	.cfi_restore w26
	.cfi_restore w27
	.cfi_restore w28
	ret
LBB2_917:                               ; %vector.scevcheck1555
	.cfi_restore_state
	.cfi_remember_state
	ldr	x5, [sp, #312]                  ; 8-byte Folded Reload
	sub	x12, x11, #1
	lsl	x13, x12, #3
	ldr	x4, [sp, #208]                  ; 8-byte Folded Reload
	sub	x14, x5, #8
	sub	x15, x14, x13
	cmp	x15, x14
	b.hi	LBB2_941
; %bb.918:                              ; %vector.scevcheck1555
	sub	x14, x10, #8
	sub	x13, x14, x13
	cmp	x13, x14
	b.hi	LBB2_941
; %bb.919:                              ; %vector.scevcheck1555
	lsr	x12, x12, #61
	cbnz	x12, LBB2_941
; %bb.920:                              ; %vector.memcheck1564
	lsl	x12, x11, #3
	add	x17, x4, #8
	add	x13, x12, #8
	sub	x16, x5, x12
	add	x0, x4, x13
	cmp	x17, x5
	ccmp	x16, x0, #2, lo
	sub	x1, x10, x12
	add	x2, x9, #8
	add	x3, x9, x13
	cset	w12, lo
	cmp	x17, x10
	ccmp	x1, x0, #2, lo
	cset	w13, lo
	cmp	x2, x5
	ccmp	x16, x3, #2, lo
	cset	w14, lo
	cmp	x2, x10
	ccmp	x1, x3, #2, lo
	cset	w15, lo
	cmp	x16, x10
	ccmp	x1, x5, #2, lo
	cset	w16, lo
	cmp	x2, x0
	ccmp	x17, x3, #2, lo
	b.lo	LBB2_941
; %bb.921:                              ; %vector.memcheck1564
	tbnz	w12, #0, LBB2_941
; %bb.922:                              ; %vector.memcheck1564
	tbnz	w13, #0, LBB2_941
; %bb.923:                              ; %vector.memcheck1564
	tbnz	w14, #0, LBB2_941
; %bb.924:                              ; %vector.memcheck1564
	tbnz	w15, #0, LBB2_941
; %bb.925:                              ; %vector.memcheck1564
	tbnz	w16, #0, LBB2_941
; %bb.926:                              ; %vector.ph1597
	and	x16, x11, #0x7ffffffffffffffe
	ubfx	x8, x8, #1, #1
	lsl	x15, x16, #3
	add	x17, x4, #8
	add	x12, x4, x15
	sub	x13, x10, x15
	add	x14, x9, x15
	sub	x15, x5, x15
	add	x9, x9, #8
	sub	x0, x5, #16
	sub	x10, x10, #16
	neg	x1, x16
LBB2_927:                               ; %vector.body1611
                                        ; =>This Inner Loop Header: Depth=1
	ldr	q0, [x0]
	adds	x1, x1, #2
	ldr	q1, [x17]
	ext.16b	v0, v0, v0, #8
	ext.16b	v1, v1, v1, #8
	str	q0, [x17], #16
	str	q1, [x0], #-16
	ldr	q0, [x9]
	ldr	q1, [x10]
	ext.16b	v0, v0, v0, #8
	ext.16b	v1, v1, v1, #8
	str	q0, [x10], #-16
	str	q1, [x9], #16
	b.ne	LBB2_927
; %bb.928:                              ; %middle.block1594
	cmp	x11, x16
	b.eq	LBB2_1241
	b	LBB2_942
LBB2_929:                               ; %vector.scevcheck
	sub	x12, x11, #1
	sub	x14, x6, #8
	lsl	x13, x12, #3
	ldr	x4, [sp, #208]                  ; 8-byte Folded Reload
	sub	x15, x14, x13
	cmp	x15, x14
	b.hi	LBB2_944
; %bb.930:                              ; %vector.scevcheck
	sub	x14, x10, #8
	sub	x13, x14, x13
	cmp	x13, x14
	b.hi	LBB2_944
; %bb.931:                              ; %vector.scevcheck
	lsr	x12, x12, #61
	cbnz	x12, LBB2_944
; %bb.932:                              ; %vector.memcheck
	lsl	x12, x11, #3
	add	x17, x4, #8
	add	x13, x12, #8
	sub	x16, x6, x12
	add	x0, x4, x13
	cmp	x17, x6
	ccmp	x16, x0, #2, lo
	sub	x1, x10, x12
	add	x2, x9, #8
	add	x3, x9, x13
	cset	w12, lo
	cmp	x17, x10
	ccmp	x1, x0, #2, lo
	cset	w13, lo
	cmp	x2, x6
	ccmp	x16, x3, #2, lo
	cset	w14, lo
	cmp	x2, x10
	ccmp	x1, x3, #2, lo
	cset	w15, lo
	cmp	x16, x10
	ccmp	x1, x6, #2, lo
	cset	w16, lo
	cmp	x2, x0
	ccmp	x17, x3, #2, lo
	b.lo	LBB2_944
; %bb.933:                              ; %vector.memcheck
	tbnz	w12, #0, LBB2_944
; %bb.934:                              ; %vector.memcheck
	tbnz	w13, #0, LBB2_944
; %bb.935:                              ; %vector.memcheck
	tbnz	w14, #0, LBB2_944
; %bb.936:                              ; %vector.memcheck
	tbnz	w15, #0, LBB2_944
; %bb.937:                              ; %vector.memcheck
	tbnz	w16, #0, LBB2_944
; %bb.938:                              ; %vector.ph749
	and	x16, x11, #0x7ffffffffffffffe
	ubfx	x8, x8, #1, #1
	lsl	x15, x16, #3
	add	x17, x4, #8
	add	x12, x4, x15
	sub	x13, x10, x15
	add	x14, x9, x15
	sub	x15, x6, x15
	add	x9, x9, #8
	sub	x0, x6, #16
	sub	x10, x10, #16
	neg	x1, x16
LBB2_939:                               ; %vector.body762
                                        ; =>This Inner Loop Header: Depth=1
	ldr	q0, [x0]
	adds	x1, x1, #2
	ldr	q1, [x17]
	ext.16b	v0, v0, v0, #8
	ext.16b	v1, v1, v1, #8
	str	q0, [x17], #16
	str	q1, [x0], #-16
	ldr	q0, [x9]
	ldr	q1, [x10]
	ext.16b	v0, v0, v0, #8
	ext.16b	v1, v1, v1, #8
	str	q0, [x10], #-16
	str	q1, [x9], #16
	b.ne	LBB2_939
; %bb.940:                              ; %middle.block746
	cmp	x11, x16
	b.eq	LBB2_1049
	b	LBB2_946
LBB2_941:
	mov	x8, x11
	mov	x12, x4
	mov	x13, x10
	mov	x14, x9
	mov	x15, x5
LBB2_942:                               ; %.lr.ph149.i.i.preheader
	add	x9, x12, #8
	sub	x10, x13, #8
	add	x11, x14, #8
	sub	x12, x15, #8
LBB2_943:                               ; %.lr.ph149.i.i
                                        ; =>This Inner Loop Header: Depth=1
	ldr	x13, [x12]
	subs	x8, x8, #1
	ldr	x14, [x9]
	str	x13, [x9], #8
	str	x14, [x12], #-8
	ldr	x13, [x11]
	ldr	x14, [x10]
	str	x13, [x10], #-8
	str	x14, [x11], #8
	b.ne	LBB2_943
	b	LBB2_1241
LBB2_944:
	mov	x8, x11
	mov	x12, x4
LBB2_945:                               ; %.lr.ph146.i.i.preheader
	mov	x13, x10
	mov	x14, x9
	mov	x15, x6
LBB2_946:                               ; %.lr.ph146.i.i.preheader
	add	x9, x12, #8
	sub	x10, x13, #8
	add	x11, x14, #8
	sub	x12, x15, #8
LBB2_947:                               ; %.lr.ph146.i.i
                                        ; =>This Inner Loop Header: Depth=1
	ldr	x13, [x12]
	subs	x8, x8, #1
	ldr	x14, [x9]
	str	x13, [x9], #8
	str	x14, [x12], #-8
	ldr	x13, [x11]
	ldr	x14, [x10]
	str	x13, [x10], #-8
	str	x14, [x11], #8
	b.ne	LBB2_947
	b	LBB2_1049
LBB2_948:
	ldr	x12, [sp, #208]                 ; 8-byte Folded Reload
	mov	x8, x11
	ldr	x15, [sp, #336]                 ; 8-byte Folded Reload
	mov	x13, x10
	ldr	x1, [sp, #304]                  ; 8-byte Folded Reload
	b	LBB2_734
LBB2_949:
	ldr	x1, [sp, #304]                  ; 8-byte Folded Reload
LBB2_950:
	mov	x9, x12
	mov	x13, x11
	mov	x14, x10
	mov	x15, x5
LBB2_951:                               ; %.lr.ph185.i.i.preheader
	add	x8, x8, #8
	sub	x10, x13, #8
	add	x11, x14, #8
	sub	x12, x15, #8
LBB2_952:                               ; %.lr.ph185.i.i
                                        ; =>This Inner Loop Header: Depth=1
	ldr	x13, [x12]
	subs	x9, x9, #1
	ldr	x14, [x8]
	str	x13, [x8], #8
	str	x14, [x12], #-8
	ldr	x13, [x11]
	ldr	x14, [x10]
	str	x13, [x10], #-8
	str	x14, [x11], #8
	b.ne	LBB2_952
LBB2_953:
	mov	x17, xzr
	mov	x4, xzr
	b	LBB2_1059
LBB2_954:
	ldr	x12, [sp, #208]                 ; 8-byte Folded Reload
	mov	x8, x11
	ldr	x15, [sp, #344]                 ; 8-byte Folded Reload
	mov	x13, x10
	ldr	x1, [sp, #304]                  ; 8-byte Folded Reload
	mov	x14, x9
	ldr	x17, [sp, #288]                 ; 8-byte Folded Reload
	b	LBB2_832
LBB2_955:
	ldr	x15, [sp, #344]                 ; 8-byte Folded Reload
	mov	x9, x12
	ldr	x1, [sp, #304]                  ; 8-byte Folded Reload
	b	LBB2_739
LBB2_956:
	ldr	x1, [sp, #72]                   ; 8-byte Folded Reload
LBB2_957:
	mov	x8, x11
	mov	x12, x10
	mov	x13, x9
	mov	x14, x6
LBB2_958:                               ; %.lr.ph212.i.i.preheader
	add	x9, x1, #8
	sub	x10, x12, #8
	add	x11, x13, #8
	sub	x12, x14, #8
LBB2_959:                               ; %.lr.ph212.i.i
                                        ; =>This Inner Loop Header: Depth=1
	ldr	x13, [x12]
	subs	x8, x8, #1
	ldr	x14, [x9]
	str	x13, [x9], #8
	str	x14, [x12], #-8
	ldr	x13, [x11]
	ldr	x14, [x10]
	str	x13, [x10], #-8
	str	x14, [x11], #8
	b.ne	LBB2_959
LBB2_960:
	mov	x1, xzr
LBB2_961:                               ; %sort.quad_reversal.exit399.i.i229
	ldr	w8, [sp, #232]                  ; 4-byte Folded Reload
	lsr	x9, x27, #9
	ldr	w10, [sp, #248]                 ; 4-byte Folded Reload
	cmp	x9, w8, uxtw
	cset	w8, lo
	cmp	x9, w10, uxtw
	cset	w19, lo
	cmp	x9, w5, uxtw
	cset	w21, lo
	cmp	x9, w7, uxtw
	cset	w20, lo
	mov	w9, #3
	movk	w9, #16, lsl #16
	cmp	x27, x9
	b.ls	LBB2_963
; %bb.962:
	mov	w20, #1
	mov	w21, #1
	mov	w19, #1
	mov	w8, #1
LBB2_963:
	lsl	w9, w21, #2
Lloh12:
	adrp	x10, LJTI2_1@PAGE
Lloh13:
	add	x10, x10, LJTI2_1@PAGEOFF
	orr	w9, w9, w19, lsl #1
	orr	w9, w9, w20, lsl #3
	orr	w9, w9, w8
	adr	x11, LBB2_964
	ldrh	w12, [x10, x9, lsl #1]
	add	x11, x11, x12, lsl #2
	br	x11
LBB2_964:
	str	x1, [sp, #304]                  ; 8-byte Folded Spill
	cbz	w8, LBB2_968
; %bb.965:
	cbz	x26, LBB2_971
; %bb.966:
	cmp	x27, #383
	b.hi	LBB2_969
; %bb.967:
	ldp	x2, x0, [sp, #200]              ; 16-byte Folded Reload
	ldr	x1, [sp, #152]                  ; 8-byte Folded Reload
	ldr	x3, [sp, #328]                  ; 8-byte Folded Reload
	ldr	x4, [sp, #360]                  ; 8-byte Folded Reload
	bl	l_sort.tail_swap__anon_14848
	b	LBB2_971
LBB2_968:
	ldp	x1, x0, [sp, #200]              ; 16-byte Folded Reload
	ldr	x8, [sp, #112]                  ; 8-byte Folded Reload
	ldr	x4, [sp, #152]                  ; 8-byte Folded Reload
	ldr	x5, [sp, #328]                  ; 8-byte Folded Reload
	add	x3, x1, x8
	mov	x2, x0
	ldr	x6, [sp, #360]                  ; 8-byte Folded Reload
	bl	l_sort.flux_partition__anon_14863
	b	LBB2_971
LBB2_969:
	ldr	x0, [sp, #208]                  ; 8-byte Folded Reload
	ldr	x1, [sp, #152]                  ; 8-byte Folded Reload
